(dp0
V\u005ctt0090930
p1
I648
sV\u005ctt0067229
p2
I502
sV\u005ctt0047472
p3
I1100
sV\u005ctt1596343
p4
I938
sV\u005ctt0355702
p5
I836
sV\u005ctt0230697
p6
I1188
sV\u005ctt0169547
p7
I129
sV\u005ctt1830790
p8
I699
sV\u005ctt0267626
p9
I635
sV\u005ctt1315981
p10
I1012
sV\u005ctt0035899
p11
I736
sV\u005ctt0095705
p12
I512
sV\u005ctt0109635
p13
I347
sV\u005ctt0045669
p14
I1250
sV\u005ctt1603257
p15
I528
sV\u005ctt0044829
p16
I1279
sV\u005ctt0892318
p17
I467
sV\u005ctt0822854
p18
I267
sV\u005ctt0049223
p19
I1382
sV\u005ctt0060107
p20
I1355
sV\u005ctt0023293
p21
I1206
sV\u005ctt0109068
p22
I1419
sV\u005ctt0116287
p23
I1113
sV\u005ctt0080437
p24
I309
sV\u005ctt0073629
p25
I327
sV\u005ctt0312639
p26
I1367
sV\u005ctt0051047
p27
I1278
sV\u005ctt0102768
p28
I1569
sV\u005ctt0119174
p29
I51
sV\u005ctt0063032
p30
I1491
sV\u005ctt0896534
p31
I1223
sV\u005ctt0970411
p32
I438
sV\u005ctt0091288
p33
I1633
sV\u005ctt0104409
p34
I1216
sV\u005ctt2083383
p35
I689
sV\u005ctt0961722
p36
I1235
sV\u005ctt0206634
p37
I119
sV\u005ctt0069992
p38
I1625
sV\u005ctt0099052
p39
I965
sV\u005ctt0228750
p40
I397
sV\u005ctt0085894
p41
I1389
sV\u005ctt0309912
p42
I1513
sV\u005ctt0483726
p43
I269
sV\u005ctt0092007
p44
I368
sV\u005ctt0119994
p45
I1420
sV\u005ctt0097523
p46
I1245
sV\u005ctt0414951
p47
I650
sV\u005ctt0212338
p48
I178
sV\u005ctt1486190
p49
I839
sV\u005ctt0115641
p50
I976
sV\u005ctt0042296
p51
I1523
sV\u005ctt0844479
p52
I886
sV\u005ctt0951216
p53
I434
sV\u005ctt0400497
p54
I127
sV\u005ctt0446755
p55
I1173
sV\u005ctt0058672
p56
I1549
sV\u005ctt0198838
p57
I1112
sV\u005ctt1667353
p58
I911
sV\u005ctt1151922
p59
I982
sV\u005ctt0181875
p60
I36
sV\u005ctt1192628
p61
I802
sV\u005ctt0032520
p62
I1210
sV\u005ctt0124315
p63
I354
sV\u005ctt0499448
p64
I969
sV\u005ctt0083530
p65
I1410
sV\u005ctt0443473
p66
I547
sV\u005ctt1242432
p67
I927
sV\u005ctt0454921
p68
I73
sV\u005ctt0970525
p69
I570
sV\u005ctt0317219
p70
I824
sV\u005ctt0082951
p71
I506
sV\u005ctt0099871
p72
I1174
sV\u005ctt0093605
p73
I562
sV\u005ctt0068555
p74
I195
sV\u005ctt0120818
p75
I1504
sV\u005ctt0100436
p76
I1333
sV\u005ctt0246544
p77
I973
sV\u005ctt0105112
p78
I308
sV\u005ctt0113636
p79
I1573
sV\u005ctt0125208
p80
I679
sV\u005ctt0468536
p81
I637
sV\u005ctt0120660
p82
I34
sV\u005ctt1242545
p83
I880
sV\u005ctt1235527
p84
I748
sV\u005ctt0071249
p85
I223
sV\u005ctt0297162
p86
I1448
sV\u005ctt0370032
p87
I719
sV\u005ctt0042286
p88
I1273
sV\u005ctt0046250
p89
I1079
sV\u005ctt0098273
p90
I17
sV\u005ctt0241303
p91
I357
sV\u005ctt0120789
p92
I57
sV\u005ctt0085780
p93
I1064
sV\u005ctt0080934
p94
I1136
sV\u005ctt0482546
p95
I862
sV\u005ctt0110912
p96
I224
sV\u005ctt0490204
p97
I265
sV\u005ctt0045274
p98
I154
sV\u005ctt1358168
p99
I1517
sV\u005ctt0284953
p100
I373
sV\u005ctt0084434
p101
I1181
sV\u005ctt0267891
p102
I1604
sV\u005ctt0201708
p103
I963
sV\u005ctt1132620
p104
I723
sV\u005ctt0053976
p105
I1207
sV\u005ctt0028773
p106
I1467
sV\u005ctt0402894
p107
I260
sV\u005ctt0110598
p108
I807
sV\u005ctt0049038
p109
I1030
sV\u005ctt0064030
p110
I1583
sV\u005ctt0411267
p111
I907
sV\u005ctt0790712
p112
I875
sV\u005ctt0096933
p113
I316
sV\u005ctt0101272
p114
I1323
sV\u005ctt0110357
p115
I232
sV\u005ctt0080339
p116
I176
sV\u005ctt1174732
p117
I276
sV\u005ctt0114857
p118
I1546
sV\u005ctt0032215
p119
I1209
sV\u005ctt1477715
p120
I18
sV\u005ctt0213847
p121
I852
sV\u005ctt0190138
p122
I1290
sV\u005ctt0046878
p123
I1249
sV\u005ctt0816436
p124
I1562
sV\u005ctt0129290
p125
I1185
sV\u005ctt0046876
p126
I1192
sV\u005ctt0081554
p127
I1364
sV\u005ctt0098084
p128
I775
sV\u005ctt0404802
p129
I903
sV\u005ctt0088044
p130
I555
sV\u005ctt0076191
p131
I1522
sV\u005ctt0119345
p132
I728
sV\u005ctt0964587
p133
I829
sV\u005ctt0044706
p134
I231
sV\u005ctt0010323
p135
I1211
sV\u005ctt0060827
p136
I1020
sV\u005ctt0062994
p137
I1094
sV\u005ctt0073747
p138
I990
sV\u005ctt0117038
p139
I1266
sV\u005ctt0329774
p140
I645
sV\u005ctt0165710
p141
I1571
sV\u005ctt0165711
p142
I233
sV\u005ctt0102614
p143
I685
sV\u005ctt1140941
p144
I568
sV\u005ctt1082853
p145
I840
sV\u005ctt0768212
p146
I1375
sV\u005ctt0338188
p147
I482
sV\u005ctt0077914
p148
I632
sV\u005ctt0054953
p149
I988
sV\u005ctt0071455
p150
I1346
sV\u005ctt0107050
p151
I1103
sV\u005ctt0035937
p152
I1309
sV\u005ctt1120985
p153
I896
sV\u005ctt1059786
p154
I120
sV\u005ctt0112681
p155
I1628
sV\u005ctt0372183
p156
I6
sV\u005ctt0112682
p157
I1422
sV\u005ctt0316654
p158
I144
sV\u005ctt0031235
p159
I1589
sV\u005ctt0132477
p160
I44
sV\u005ctt0314786
p161
I337
sV\u005ctt0383993
p162
I1528
sV\u005ctt0112864
p163
I244
sV\u005ctt0104438
p164
I1413
sV\u005ctt0103359
p165
I859
sV\u005ctt0362120
p166
I416
sV\u005ctt0076666
p167
I186
sV\u005ctt0032143
p168
I1047
sV\u005ctt0402399
p169
I946
sV\u005ctt0051459
p170
I1542
sV\u005ctt0023775
p171
I1612
sV\u005ctt0097737
p172
I602
sV\u005ctt0350261
p173
I77
sV\u005ctt1078940
p174
I442
sV\u005ctt0783233
p175
I107
sV\u005ctt1512235
p176
I918
sV\u005ctt0479997
p177
I475
sV\u005ctt0043362
p178
I1555
sV\u005ctt0280720
p179
I348
sV\u005ctt0211915
p180
I250
sV\u005ctt0033149
p181
I1046
sV\u005ctt0071276
p182
I523
sV\u005ctt0366777
p183
I809
sV\u005ctt1323594
p184
I444
sV\u005ctt0384378
p185
I1440
sV\u005ctt1320244
p186
I625
sV\u005ctt0083946
p187
I1060
sV\u005ctt0086465
p188
I171
sV\u005ctt0417433
p189
I1369
sV\u005ctt0183649
p190
I404
sV\u005ctt0114614
p191
I1327
sV\u005ctt0082782
p192
I666
sV\u005ctt0404390
p193
I545
sV\u005ctt0401558
p194
I288
sV\u005ctt0762073
p195
I1228
sV\u005ctt1605783
p196
I221
sV\u005ctt0052618
p197
I1000
sV\u005ctt0080745
p198
I1332
sV\u005ctt0084917
p199
I188
sV\u005ctt0083542
p200
I541
sV\u005ctt0314430
p201
I854
sV\u005ctt0299977
p202
I1089
sV\u005ctt0120152
p203
I52
sV\u005ctt0120157
p204
I388
sV\u005ctt0086200
p205
I1176
sV\u005ctt1268799
p206
I948
sV\u005ctt0048980
p207
I1115
sV\u005ctt0017136
p208
I984
sV\u005ctt0357507
p209
I759
sV\u005ctt0256525
p210
I164
sV\u005ctt0094962
p211
I500
sV\u005ctt0094963
p212
I1256
sV\u005ctt0079522
p213
I200
sV\u005ctt0057261
p214
I1023
sV\u005ctt0305357
p215
I1069
sV\u005ctt0808151
p216
I454
sV\u005ctt0252501
p217
I398
sV\u005ctt0970468
p218
I450
sV\u005ctt0274117
p219
I1055
sV\u005ctt0085255
p220
I1581
sV\u005ctt0821640
p221
I1161
sV\u005ctt0052969
p222
I745
sV\u005ctt0048673
p223
I1462
sV\u005ctt1321509
p224
I651
sV\u005ctt0034277
p225
I721
sV\u005ctt0068309
p226
I181
sV\u005ctt0432291
p227
I766
sV\u005ctt0120797
p228
I39
sV\u005ctt0038559
p229
I1101
sV\u005ctt0120794
p230
I678
sV\u005ctt0057869
p231
I1019
sV\u005ctt0120791
p232
I46
sV\u005ctt0264508
p233
I569
sV\u005ctt0085794
p234
I193
sV\u005ctt0124298
p235
I1418
sV\u005ctt0038873
p236
I1552
sV\u005ctt0053363
p237
I1303
sV\u005ctt0039689
p238
I959
sV\u005ctt0386117
p239
I323
sV\u005ctt0101640
p240
I1630
sV\u005ctt0062136
p241
I972
sV\u005ctt0099938
p242
I443
sV\u005ctt0099939
p243
I213
sV\u005ctt1758830
p244
I785
sV\u005ctt0106912
p245
I1553
sV\u005ctt0331953
p246
I516
sV\u005ctt0453533
p247
I1481
sV\u005ctt0411270
p248
I1007
sV\u005ctt1068680
p249
I228
sV\u005ctt0035784
p250
I1208
sV\u005ctt0039208
p251
I1377
sV\u005ctt0137363
p252
I72
sV\u005ctt0015324
p253
I1265
sV\u005ctt0039066
p254
I1102
sV\u005ctt0240200
p255
I414
sV\u005ctt0097981
p256
I418
sV\u005ctt0040613
p257
I1489
sV\u005ctt0376890
p258
I1071
sV\u005ctt0195685
p259
I131
sV\u005ctt0829482
p260
I256
sV\u005ctt0810900
p261
I1028
sV\u005ctt1478964
p262
I808
sV\u005ctt1215483
p263
I575
sV\u005ctt0462482
p264
I567
sV\u005ctt0164437
p265
I1083
sV\u005ctt0322330
p266
I797
sV\u005ctt0482572
p267
I484
sV\u005ctt0480025
p268
I912
sV\u005ctt0316465
p269
I1362
sV\u005ctt0095765
p270
I1087
sV\u005ctt0450385
p271
I614
sV\u005ctt0066249
p272
I980
sV\u005ctt0281358
p273
I126
sV\u005ctt1034032
p274
I795
sV\u005ctt0473308
p275
I259
sV\u005ctt0049201
p276
I989
sV\u005ctt0462396
p277
I480
sV\u005ctt1839492
p278
I898
sV\u005ctt0062188
p279
I1563
sV\u005ctt0062185
p280
I1121
sV\u005ctt0031448
p281
I978
sV\u005ctt0190332
p282
I8
sV\u005ctt0080455
p283
I314
sV\u005ctt0043955
p284
I1257
sV\u005ctt0088930
p285
I424
sV\u005ctt1013743
p286
I747
sV\u005ctt0067065
p287
I1345
sV\u005ctt0489237
p288
I470
sV\u005ctt0062362
p289
I1302
sV\u005ctt0049934
p290
I1026
sV\u005ctt0181739
p291
I581
sV\u005ctt0040876
p292
I866
sV\u005ctt0332047
p293
I112
sV\u005ctt0765476
p294
I823
sV\u005ctt0822832
p295
I922
sV\u005ctt0288477
p296
I363
sV\u005ctt0116409
p297
I1560
sV\u005ctt1692486
p298
I242
sV\u005ctt0398913
p299
I909
sV\u005ctt0117802
p300
I35
sV\u005ctt0104511
p301
I1199
sV\u005ctt0081318
p302
I1398
sV\u005ctt0331632
p303
I848
sV\u005ctt0806027
p304
I771
sV\u005ctt0059418
p305
I1353
sV\u005ctt0033774
p306
I1306
sV\u005ctt0099329
p307
I649
sV\u005ctt0058947
p308
I1123
sV\u005ctt0066730
p309
I1634
sV\u005ctt0089155
p310
I957
sV\u005ctt1135084
p311
I895
sV\u005ctt0314353
p312
I1538
sV\u005ctt0093756
p313
I1051
sV\u005ctt0107953
p314
I1109
sV\u005ctt0247638
p315
I268
sV\u005ctt0093974
p316
I1520
sV\u005ctt0097474
p317
I654
sV\u005ctt0467200
p318
I255
sV\u005ctt1308729
p319
I698
sV\u005ctt0280665
p320
I1175
sV\u005ctt0119822
p321
I63
sV\u005ctt0424136
p322
I23
sV\u005ctt0326905
p323
I1191
sV\u005ctt0052357
p324
I190
sV\u005ctt0848557
p325
I664
sV\u005ctt0083550
p326
I626
sV\u005ctt0252866
p327
I1080
sV\u005ctt0082971
p328
I40
sV\u005ctt0146316
p329
I1244
sV\u005ctt0116996
p330
I56
sV\u005ctt0058725
p331
I1395
sV\u005ctt1267309
p332
I675
sV\u005ctt0454430
p333
I297
sV\u005ctt0078935
p334
I507
sV\u005ctt0046478
p335
I1352
sV\u005ctt0403702
p336
I455
sV\u005ctt0368709
p337
I830
sV\u005ctt0311519
p338
I1392
sV\u005ctt0118460
p339
I596
sV\u005ctt0082377
p340
I406
sV\u005ctt0053172
p341
I1463
sV\u005ctt0079285
p342
I1120
sV\u005ctt0121765
p343
I405
sV\u005ctt1017451
p344
I924
sV\u005ctt0317303
p345
I961
sV\u005ctt0115988
p346
I733
sV\u005ctt0099582
p347
I1162
sV\u005ctt0876563
p348
I845
sV\u005ctt0384833
p349
I19
sV\u005ctt1232207
p350
I277
sV\u005ctt0342172
p351
I667
sV\u005ctt0481141
p352
I70
sV\u005ctt0073341
p353
I1551
sV\u005ctt0080130
p354
I767
sV\u005ctt0481499
p355
I704
sV\u005ctt0058548
p356
I1379
sV\u005ctt0120749
p357
I1042
sV\u005ctt0084695
p358
I1358
sV\u005ctt0286716
p359
I566
sV\u005ctt1253864
p360
I816
sV\u005ctt0397078
p361
I425
sV\u005ctt0926129
p362
I483
sV\u005ctt0091326
p363
I1166
sV\u005ctt0790736
p364
I706
sV\u005ctt0106455
p365
I1564
sV\u005ctt0034862
p366
I1456
sV\u005ctt0110622
p367
I591
sV\u005ctt0426883
p368
I87
sV\u005ctt0037514
p369
I1097
sV\u005ctt1438176
p370
I878
sV\u005ctt0050722
p371
I1365
sV\u005ctt0424823
p372
I647
sV\u005ctt0039581
p373
I1154
sV\u005ctt0050296
p374
I1619
sV\u005ctt0120647
p375
I48
sV\u005ctt0038854
p376
I24
sV\u005ctt0968264
p377
I877
sV\u005ctt0913354
p378
I899
sV\u005ctt0040662
p379
I1453
sV\u005ctt0397101
p380
I81
sV\u005ctt0114906
p381
I950
sV\u005ctt0790604
p382
I421
sV\u005ctt0071508
p383
I546
sV\u005ctt0200290
p384
I1293
sV\u005ctt0494238
p385
I1510
sV\u005ctt0073018
p386
I952
sV\u005ctt0117580
p387
I1507
sV\u005ctt0312004
p388
I282
sV\u005ctt0117589
p389
I1078
sV\u005ctt0803057
p390
I1515
sV\u005ctt0090180
p391
I1073
sV\u005ctt0045564
p392
I1618
sV\u005ctt0042451
p393
I1294
sV\u005ctt0087803
p394
I1574
sV\u005ctt0087800
p395
I588
sV\u005ctt0430357
p396
I149
sV\u005ctt0307987
p397
I69
sV\u005ctt1615147
p398
I825
sV\u005ctt0024894
p399
I742
sV\u005ctt0361841
p400
I1214
sV\u005ctt1013753
p401
I162
sV\u005ctt0027698
p402
I1146
sV\u005ctt0141109
p403
I1415
sV\u005ctt0118929
p404
I33
sV\u005ctt0118928
p405
I968
sV\u005ctt0031210
p406
I1277
sV\u005ctt0112401
p407
I599
sV\u005ctt0119256
p408
I50
sV\u005ctt0372784
p409
I101
sV\u005ctt1149362
p410
I109
sV\u005ctt0145681
p411
I378
sV\u005ctt0999913
p412
I517
sV\u005ctt0023395
p413
I1599
sV\u005ctt0044502
p414
I1300
sV\u005ctt0018455
p415
I1151
sV\u005ctt1666186
p416
I610
sV\u005ctt0370263
p417
I151
sV\u005ctt0067893
p418
I1487
sV\u005ctt0383574
p419
I128
sV\u005ctt0092906
p420
I578
sV\u005ctt1637725
p421
I701
sV\u005ctt0089853
p422
I170
sV\u005ctt0377091
p423
I576
sV\u005ctt0051433
p424
I999
sV\u005ctt0252076
p425
I1056
sV\u005ctt0203230
p426
I1004
sV\u005ctt0166485
p427
I1177
sV\u005ctt0018528
p428
I738
sV\u005ctt0424345
p429
I876
sV\u005ctt0955308
p430
I671
sV\u005ctt1217051
p431
I711
sV\u005ctt1320261
p432
I420
sV\u005ctt0093748
p433
I156
sV\u005ctt0052700
p434
I1275
sV\u005ctt0069495
p435
I452
sV\u005ctt0037075
p436
I1351
sV\u005ctt1588170
p437
I1447
sV\u005ctt0208874
p438
I262
sV\u005ctt0092644
p439
I1495
sV\u005ctt0151568
p440
I1068
sV\u005ctt0029162
p441
I1197
sV\u005ctt0056331
p442
I1613
sV\u005ctt0078908
p443
I617
sV\u005ctt0072684
p444
I307
sV\u005ctt0024991
p445
I1125
sV\u005ctt1091722
p446
I104
sV\u005ctt0078902
p447
I1543
sV\u005ctt0471041
p448
I900
sV\u005ctt0069768
p449
I1397
sV\u005ctt0281932
p450
I350
sV\u005ctt0056193
p451
I227
sV\u005ctt0082694
p452
I304
sV\u005ctt0049471
p453
I995
sV\u005ctt0366627
p454
I936
sV\u005ctt0032484
p455
I1446
sV\u005ctt0295701
p456
I310
sV\u005ctt0038622
p457
I346
sV\u005ctt0061852
p458
I158
sV\u005ctt0085333
p459
I615
sV\u005ctt0050468
p460
I986
sV\u005ctt0795493
p461
I923
sV\u005ctt0101393
p462
I1118
sV\u005ctt1369706
p463
I1224
sV\u005ctt0034522
p464
I863
sV\u005ctt0098206
p465
I345
sV\u005ctt0297884
p466
I633
sV\u005ctt0150216
p467
I780
sV\u005ctt0193320
p468
I1347
sV\u005ctt0427309
p469
I270
sV\u005ctt0072226
p470
I1403
sV\u005ctt0800080
p471
I412
sV\u005ctt0080120
p472
I326
sV\u005ctt1920849
p473
I843
sV\u005ctt0454776
p474
I1376
sV\u005ctt0085750
p475
I1405
sV\u005ctt0110638
p476
I1081
sV\u005ctt0041452
p477
I1044
sV\u005ctt0110322
p478
I1368
sV\u005ctt0275719
p479
I883
sV\u005ctt0064208
p480
I1292
sV\u005ctt0220827
p481
I1439
sV\u005ctt0080057
p482
I501
sV\u005ctt0448134
p483
I942
sV\u005ctt0077588
p484
I1128
sV\u005ctt1197628
p485
I983
sV\u005ctt0050294
p486
I1610
sV\u005ctt0034890
p487
I1554
sV\u005ctt0038991
p488
I1150
sV\u005ctt0482599
p489
I774
sV\u005ctt0107507
p490
I1627
sV\u005ctt0225071
p491
I1260
sV\u005ctt0087277
p492
I1024
sV\u005ctt0087909
p493
I600
sV\u005ctt0960890
p494
I1291
sV\u005ctt0475937
p495
I890
sV\u005ctt0037793
p496
I979
sV\u005ctt0166813
p497
I1090
sV\u005ctt0018037
p498
I1145
sV\u005ctt0223897
p499
I263
sV\u005ctt0140352
p500
I61
sV\u005ctt0081617
p501
I1408
sV\u005ctt0824747
p502
I299
sV\u005ctt0313540
p503
I382
sV\u005ctt0113855
p504
I956
sV\u005ctt0040308
p505
I1534
sV\u005ctt0071408
p506
I761
sV\u005ctt0181536
p507
I14
sV\u005ctt0110074
p508
I292
sV\u005ctt0387131
p509
I95
sV\u005ctt0422401
p510
I634
sV\u005ctt0269347
p511
I585
sV\u005ctt0283139
p512
I720
sV\u005ctt0090685
p513
I1098
sV\u005ctt0054743
p514
I1005
sV\u005ctt0233108
p515
I295
sV\u005ctt0277027
p516
I296
sV\u005ctt0017925
p517
I237
sV\u005ctt0186151
p518
I370
sV\u005ctt0071315
p519
I197
sV\u005ctt0343818
p520
I1183
sV\u005ctt0087727
p521
I1039
sV\u005ctt0421054
p522
I776
sV\u005ctt0066995
p523
I684
sV\u005ctt0099012
p524
I1539
sV\u005ctt0286788
p525
I429
sV\u005ctt0027260
p526
I1483
sV\u005ctt0289879
p527
I111
sV\u005ctt0203009
p528
I306
sV\u005ctt0089841
p529
I252
sV\u005ctt0112642
p530
I788
sV\u005ctt0071790
p531
I1432
sV\u005ctt0065234
p532
I212
sV\u005ctt1232776
p533
I1015
sV\u005ctt0096071
p534
I497
sV\u005ctt0413015
p535
I266
sV\u005ctt0116421
p536
I681
sV\u005ctt1042877
p537
I1233
sV\u005ctt1226273
p538
I943
sV\u005ctt0055728
p539
I1593
sV\u005ctt0104053
p540
I1431
sV\u005ctt0093779
p541
I322
sV\u005ctt0457513
p542
I159
sV\u005ctt0108238
p543
I624
sV\u005ctt0033740
p544
I1476
sV\u005ctt0093177
p545
I2
sV\u005ctt0032762
p546
I992
sV\u005ctt0119807
p547
I376
sV\u005ctt0400525
p548
I765
sV\u005ctt0280609
p549
I15
sV\u005ctt1050160
p550
I1286
sV\u005ctt0082700
p551
I509
sV\u005ctt0109836
p552
I1
sV\u005ctt0058700
p553
I496
sV\u005ctt0075148
p554
I172
sV\u005ctt0265666
p555
I407
sV\u005ctt0170016
p556
I953
sV\u005ctt0232500
p557
I1116
sV\u005ctt1409024
p558
I687
sV\u005ctt0265208
p559
I518
sV\u005ctt1216487
p560
I949
sV\u005ctt1173745
p561
I1014
sV\u005ctt0443543
p562
I114
sV\u005ctt0363771
p563
I717
sV\u005ctt0160184
p564
I530
sV\u005ctt0253556
p565
I564
sV\u005ctt0104952
p566
I342
sV\u005ctt0264616
p567
I490
sV\u005ctt0115857
p568
I629
sV\u005ctt0057076
p569
I682
sV\u005ctt0126604
p570
I815
sV\u005ctt0057495
p571
I1378
sV\u005ctt0072251
p572
I1045
sV\u005ctt0427312
p573
I1289
sV\u005ctt1520211
p574
I1117
sV\u005ctt0364385
p575
I1330
sV\u005ctt0060794
p576
I1494
sV\u005ctt1389137
p577
I928
sV\u005ctt0058567
p578
I1506
sV\u005ctt0094336
p579
I367
sV\u005ctt0094332
p580
I1537
sV\u005ctt0060558
p581
I549
sV\u005ctt0403508
p582
I86
sV\u005ctt0064072
p583
I1480
sV\u005ctt1616195
p584
I746
sV\u005ctt0041113
p585
I1108
sV\u005ctt0069341
p586
I1394
sV\u005ctt0042646
p587
I1451
sV\u005ctt0270288
p588
I355
sV\u005ctt0039017
p589
I1312
sV\u005ctt0240890
p590
I457
sV\u005ctt2101341
p591
I749
sV\u005ctt0112641
p592
I216
sV\u005ctt0473514
p593
I577
sV\u005ctt0086979
p594
I226
sV\u005ctt0448124
p595
I710
sV\u005ctt0106387
p596
I448
sV\u005ctt0094025
p597
I1540
sV\u005ctt0829459
p598
I945
sV\u005ctt0114924
p599
I351
sV\u005ctt0046126
p600
I1288
sV\u005ctt0110265
p601
I772
sV\u005ctt0067630
p602
I1486
sV\u005ctt1032825
p603
I806
sV\u005ctt0067328
p604
I169
sV\u005ctt1478333
p605
I930
sV\u005ctt0421238
p606
I1270
sV\u005ctt1772240
p607
I913
sV\u005ctt0090859
p608
I595
sV\u005ctt0105477
p609
I1189
sV\u005ctt0090329
p610
I157
sV\u005ctt0313792
p611
I264
sV\u005ctt0119013
p612
I680
sV\u005ctt0033563
p613
I184
sV\u005ctt0095647
p614
I202
sV\u005ctt0067741
p615
I1498
sV\u005ctt0071411
p616
I146
sV\u005ctt0096119
p617
I605
sV\u005ctt0085995
p618
I642
sV\u005ctt0408985
p619
I799
sV\u005ctt0035979
p620
I1316
sV\u005ctt0087597
p621
I1518
sV\u005ctt0401855
p622
I524
sV\u005ctt0396093
p623
I294
sV\u005ctt0080646
p624
I1490
sV\u005ctt0416449
p625
I7
sV\u005ctt0155267
p626
I68
sV\u005ctt0119303
p627
I967
sV\u005ctt0215129
p628
I379
sV\u005ctt0462053
p629
I579
sV\u005ctt0040427
p630
I1258
sV\u005ctt0145660
p631
I402
sV\u005ctt0139809
p632
I285
sV\u005ctt0091867
p633
I180
sV\u005ctt0059573
p634
I1301
sV\u005ctt0185183
p635
I401
sV\u005ctt0058886
p636
I1230
sV\u005ctt0383222
p637
I1437
sV\u005ctt0194218
p638
I349
sV\u005ctt0054135
p639
I1172
sV\u005ctt0092965
p640
I1165
sV\u005ctt1637706
p641
I906
sV\u005ctt0799934
p642
I532
sV\u005ctt0076716
p643
I1586
sV\u005ctt0327084
p644
I837
sV\u005ctt1228987
p645
I750
sV\u005ctt0318462
p646
I493
sV\u005ctt0285346
p647
I3
sV\u005ctt0322589
p648
I106
sV\u005ctt0315297
p649
I853
sV\u005ctt0981227
p650
I821
sV\u005ctt0055719
p651
I993
sV\u005ctt1130080
p652
I471
sV\u005ctt0095863
p653
I1438
sV\u005ctt0029747
p654
I1477
sV\u005ctt0097647
p655
I1187
sV\u005ctt0097428
p656
I593
sV\u005ctt0083907
p657
I374
sV\u005ctt0780583
p658
I657
sV\u005ctt0346491
p659
I150
sV\u005ctt0435705
p660
I289
sV\u005ctt0068767
p661
I1497
sV\u005ctt0948470
p662
I279
sV\u005ctt0119731
p663
I725
sV\u005ctt0266308
p664
I565
sV\u005ctt0496436
p665
I1142
sV\u005ctt0889583
p666
I21
sV\u005ctt0048254
p667
I336
sV\u005ctt0083630
p668
I758
sV\u005ctt0028346
p669
I1501
sV\u005ctt1075417
p670
I920
sV\u005ctt0052811
p671
I1129
sV\u005ctt1172571
p672
I476
sV\u005ctt0053146
p673
I1383
sV\u005ctt0100263
p674
I75
sV\u005ctt1216492
p675
I436
sV\u005ctt0120601
p676
I60
sV\u005ctt0084777
p677
I1239
sV\u005ctt1446192
p678
I798
sV\u005ctt0025748
p679
I1096
sV\u005ctt0257044
p680
I139
sV\u005ctt0167404
p681
I137
sV\u005ctt0179284
p682
I1169
sV\u005ctt0449086
p683
I607
sV\u005ctt0449088
p684
I481
sV\u005ctt0389790
p685
I813
sV\u005ctt0079417
p686
I239
sV\u005ctt0113481
p687
I833
sV\u005ctt0104036
p688
I1348
sV\u005ctt0300051
p689
I513
sV\u005ctt0039645
p690
I1450
sV\u005ctt0284929
p691
I5
sV\u005ctt1530509
p692
I1038
sV\u005ctt1302011
p693
I674
sV\u005ctt0120737
p694
I313
sV\u005ctt0120731
p695
I372
sV\u005ctt1068641
p696
I793
sV\u005ctt1234719
p697
I1320
sV\u005ctt0397044
p698
I855
sV\u005ctt0058085
p699
I1584
sV\u005ctt0139239
p700
I356
sV\u005ctt0089274
p701
I1565
sV\u005ctt0430922
p702
I462
sV\u005ctt0437800
p703
I152
sV\u005ctt0042876
p704
I234
sV\u005ctt0048424
p705
I1049
sV\u005ctt1570728
p706
I831
sV\u005ctt1220198
p707
I934
sV\u005ctt0088011
p708
I10
sV\u005ctt2002718
p709
I695
sV\u005ctt0048641
p710
I1373
sV\u005ctt0106557
p711
I763
sV\u005ctt0038462
p712
I1251
sV\u005ctt0090021
p713
I849
sV\u005ctt0090022
p714
I1532
sV\u005ctt0480269
p715
I105
sV\u005ctt0087928
p716
I415
sV\u005ctt0054691
p717
I1488
sV\u005ctt0070666
p718
I168
sV\u005ctt0065854
p719
I1401
sV\u005ctt0901476
p720
I820
sV\u005ctt0059113
p721
I1082
sV\u005ctt0059825
p722
I1317
sV\u005ctt0283026
p723
I1531
sV\u005ctt0926063
p724
I873
sV\u005ctt0393635
p725
I904
sV\u005ctt0041090
p726
I1567
sV\u005ctt0297284
p727
I571
sV\u005ctt0450278
p728
I16
sV\u005ctt0139699
p729
I329
sV\u005ctt0316732
p730
I93
sV\u005ctt0373889
p731
I860
sV\u005ctt0127723
p732
I125
sV\u005ctt0373883
p733
I488
sV\u005ctt0095652
p734
I1615
sV\u005ctt0119485
p735
I0
sV\u005ctt0827782
p736
I521
sV\u005ctt0283111
p737
I1319
sV\u005ctt0119314
p738
I41
sV\u005ctt0067333
p739
I1406
sV\u005ctt1423995
p740
I1143
sV\u005ctt1279935
p741
I464
sV\u005ctt1403981
p742
I944
sV\u005ctt0234354
p743
I580
sV\u005ctt0340612
p744
I1370
sV\u005ctt0054389
p745
I1624
sV\u005ctt0083284
p746
I594
sV\u005ctt0266465
p747
I620
sV\u005ctt0203755
p748
I261
sV\u005ctt0499556
p749
I558
sV\u005ctt0337692
p750
I1160
sV\u005ctt0056875
p751
I503
sV\u005ctt0055254
p752
I1548
sV\u005ctt0099365
p753
I311
sV\u005ctt0097659
p754
I696
sV\u005ctt1038686
p755
I827
sV\u005ctt0356150
p756
I92
sV\u005ctt0168786
p757
I1021
sV\u005ctt0455805
p758
I461
sV\u005ctt0026752
p759
I1264
sV\u005ctt0055894
p760
I760
sV\u005ctt0221218
p761
I851
sV\u005ctt0478304
p762
I130
sV\u005ctt1134632
p763
I283
sV\u005ctt1657507
p764
I715
sV\u005ctt0107822
p765
I410
sV\u005ctt0083629
p766
I548
sV\u005ctt1702439
p767
I1321
sV\u005ctt0082085
p768
I1053
sV\u005ctt1564579
p769
I439
sV\u005ctt1496422
p770
I713
sV\u005ctt0146336
p771
I958
sV\u005ctt1189340
p772
I246
sV\u005ctt0078841
p773
I318
sV\u005ctt0844760
p774
I893
sV\u005ctt0402901
p775
I495
sV\u005ctt1071875
p776
I937
sV\u005ctt0787475
p777
I1093
sV\u005ctt0053198
p778
I1159
sV\u005ctt0426931
p779
I90
sV\u005ctt0024593
p780
I1198
sV\u005ctt1046163
p781
I78
sV\u005ctt0390384
p782
I286
sV\u005ctt0047034
p783
I1075
sV\u005ctt0109508
p784
I1384
sV\u005ctt0370986
p785
I1357
sV\u005ctt0037084
p786
I1195
sV\u005ctt0100935
p787
I1505
sV\u005ctt0104029
p788
I1626
sV\u005ctt0082245
p789
I768
sV\u005ctt0057012
p790
I230
sV\u005ctt0038259
p791
I1452
sV\u005ctt0401711
p792
I724
sV\u005ctt0042208
p793
I1508
sV\u005ctt1649419
p794
I708
sV\u005ctt0057634
p795
I1298
sV\u005ctt1325004
p796
I753
sV\u005ctt1612774
p797
I1234
sV\u005ctt0042276
p798
I1471
sV\u005ctt0068240
p799
I1107
sV\u005ctt0795351
p800
I611
sV\u005ctt0048750
p801
I220
sV\u005ctt0054698
p802
I344
sV\u005ctt1000771
p803
I1009
sV\u005ctt0047149
p804
I1204
sV\u005ctt0115491
p805
I1341
sV\u005ctt0037558
p806
I1443
sV\u005ctt0280835
p807
I1324
sV\u005ctt1509767
p808
I670
sV\u005ctt0290002
p809
I515
sV\u005ctt0141369
p810
I1242
sV\u005ctt0489049
p811
I1284
sV\u005ctt0416044
p812
I933
sV\u005ctt0058212
p813
I572
sV\u005ctt0094006
p814
I1325
sV\u005ctt0085382
p815
I714
sV\u005ctt0279331
p816
I563
sV\u005ctt0045919
p817
I1608
sV\u005ctt1694020
p818
I707
sV\u005ctt0038494
p819
I1479
sV\u005ctt0067185
p820
I1149
sV\u005ctt0361089
p821
I804
sV\u005ctt0080716
p822
I1585
sV\u005ctt0298744
p823
I519
sV\u005ctt1840417
p824
I817
sV\u005ctt0125022
p825
I1336
sV\u005ctt0024055
p826
I1153
sV\u005ctt0362270
p827
I586
sV\u005ctt0448075
p828
I273
sV\u005ctt0087843
p829
I240
sV\u005ctt0080391
p830
I1514
sV\u005ctt0962736
p831
I841
sV\u005ctt0068230
p832
I1310
sV\u005ctt0089003
p833
I1041
sV\u005ctt0159097
p834
I25
sV\u005ctt0830558
p835
I905
sV\u005ctt0893382
p836
I1018
sV\u005ctt0892255
p837
I116
sV\u005ctt0048215
p838
I1385
sV\u005ctt0209475
p839
I472
sV\u005ctt0091541
p840
I1473
sV\u005ctt0303776
p841
I782
sV\u005ctt0020629
p842
I173
sV\u005ctt0450463
p843
I321
sV\u005ctt0067341
p844
I1213
sV\u005ctt0944835
p845
I792
sV\u005ctt0092890
p846
I217
sV\u005ctt0277296
p847
I870
sV\u005ctt1190536
p848
I939
sV\u005ctt0243017
p849
I1449
sV\u005ctt0373450
p850
I929
sV\u005ctt0299458
p851
I1424
sV\u005ctt0116324
p852
I43
sV\u005ctt0023590
p853
I1305
sV\u005ctt0096463
p854
I360
sV\u005ctt0182843
p855
I364
sV\u005ctt1058017
p856
I819
sV\u005ctt0056869
p857
I179
sV\u005ctt0319262
p858
I88
sV\u005ctt0107290
p859
I305
sV\u005ctt0384642
p860
I1248
sV\u005ctt0040919
p861
I1313
sV\u005ctt0111257
p862
I601
sV\u005ctt0452594
p863
I113
sV\u005ctt0111070
p864
I960
sV\u005ctt0083929
p865
I1343
sV\u005ctt0062467
p866
I1048
sV\u005ctt1053424
p867
I781
sV\u005ctt0414387
p868
I117
sV\u005ctt0043014
p869
I215
sV\u005ctt1191111
p870
I1238
sV\u005ctt0343660
p871
I258
sV\u005ctt0051899
p872
I1276
sV\u005ctt0295297
p873
I511
sV\u005ctt0055601
p874
I1380
sV\u005ctt0478311
p875
I254
sV\u005ctt0069293
p876
I1052
sV\u005ctt0094812
p877
I826
sV\u005ctt0452681
p878
I951
sV\u005ctt0075930
p879
I9
sV\u005ctt0097351
p880
I1157
sV\u005ctt0457419
p881
I869
sV\u005ctt0053619
p882
I726
sV\u005ctt0080440
p883
I1434
sV\u005ctt0086393
p884
I1186
sV\u005ctt0040536
p885
I1577
sV\u005ctt0104237
p886
I1013
sV\u005ctt0072890
p887
I103
sV\u005ctt0103919
p888
I1114
sV\u005ctt0079788
p889
I1436
sV\u005ctt1859650
p890
I447
sV\u005ctt0048696
p891
I1205
sV\u005ctt0377981
p892
I847
sV\u005ctt0052902
p893
I718
sV\u005ctt0349825
p894
I1099
sV\u005ctt1333125
p895
I1236
sV\u005ctt0115798
p896
I417
sV\u005ctt0165929
p897
I1040
sV\u005ctt0081178
p898
I1400
sV\u005ctt0094919
p899
I640
sV\u005ctt0048545
p900
I205
sV\u005ctt0037094
p901
I1472
sV\u005ctt0058777
p902
I1287
sV\u005ctt0082250
p903
I531
sV\u005ctt1285016
p904
I136
sV\u005ctt0305206
p905
I639
sV\u005ctt0076141
p906
I1393
sV\u005ctt1047540
p907
I690
sV\u005ctt0462519
p908
I456
sV\u005ctt0352277
p909
I1269
sV\u005ctt0088381
p910
I1138
sV\u005ctt0492956
p911
I458
sV\u005ctt0101757
p912
I11
sV\u005ctt0029811
p913
I1314
sV\u005ctt0038669
p914
I1155
sV\u005ctt0486583
p915
I1034
sV\u005ctt0120620
p916
I1614
sV\u005ctt0130121
p917
I400
sV\u005ctt0120744
p918
I58
sV\u005ctt0084021
p919
I1558
sV\u005ctt0025465
p920
I1201
sV\u005ctt0094074
p921
I652
sV\u005ctt0113253
p922
I498
sV\u005ctt0035169
p923
I1349
sV\u005ctt0297114
p924
I82
sV\u005ctt0947802
p925
I598
sV\u005ctt0039757
p926
I331
sV\u005ctt0480242
p927
I431
sV\u005ctt0480249
p928
I290
sV\u005ctt0810988
p929
I1509
sV\u005ctt0779982
p930
I485
sV\u005ctt2234155
p931
I702
sV\u005ctt0048356
p932
I222
sV\u005ctt0034946
p933
I1588
sV\u005ctt0038937
p934
I1561
sV\u005ctt0099422
p935
I731
sV\u005ctt0099423
p936
I194
sV\u005ctt0072869
p937
I643
sV\u005ctt0970179
p938
I161
sV\u005ctt0369226
p939
I1140
sV\u005ctt2404479
p940
I709
sV\u005ctt0035015
p941
I1602
sV\u005ctt1549920
p942
I550
sV\u005ctt0033532
p943
I1194
sV\u005ctt0990407
p944
I426
sV\u005ctt1564367
p945
I441
sV\u005ctt0099165
p946
I1285
sV\u005ctt0217869
p947
I132
sV\u005ctt0045557
p948
I1147
sV\u005ctt0077362
p949
I26
sV\u005ctt0087892
p950
I473
sV\u005ctt0760311
p951
I1632
sV\u005ctt0112697
p952
I359
sV\u005ctt0045152
p953
I245
sV\u005ctt1160368
p954
I533
sV\u005ctt0096256
p955
I962
sV\u005ctt0119116
p956
I59
sV\u005ctt0235737
p957
I1363
sV\u005ctt0166369
p958
I1597
sV\u005ctt0220506
p959
I665
sV\u005ctt0308152
p960
I1566
sV\u005ctt0032138
p961
I324
sV\u005ctt0070518
p962
I1407
sV\u005ctt0181151
p963
I1106
sV\u005ctt0964517
p964
I182
sV\u005ctt1504320
p965
I218
sV\u005ctt0765120
p966
I838
sV\u005ctt0099697
p967
I662
sV\u005ctt0112346
p968
I248
sV\u005ctt0070215
p969
I1492
sV\u005ctt0815241
p970
I1218
sV\u005ctt0484740
p971
I871
sV\u005ctt0815245
p972
I932
sV\u005ctt0051337
p973
I867
sV\u005ctt0285331
p974
I551
sV\u005ctt0118883
p975
I1184
sV\u005ctt0242998
p976
I631
sV\u005ctt0308379
p977
I1485
sV\u005ctt0055277
p978
I1601
sV\u005ctt0243133
p979
I238
sV\u005ctt0822847
p980
I703
sV\u005ctt0051755
p981
I1144
sV\u005ctt0443295
p982
I432
sV\u005ctt0052225
p983
I1050
sV\u005ctt0432402
p984
I935
sV\u005ctt0062472
p985
I1281
sV\u005ctt0327162
p986
I526
sV\u005ctt0342735
p987
I941
sV\u005ctt1261978
p988
I1231
sV\u005ctt0056923
p989
I730
sV\u005ctt0151738
p990
I1568
sV\u005ctt0108162
p991
I1430
sV\u005ctt0252028
p992
I1318
sV\u005ctt0069281
p993
I187
sV\u005ctt0294357
p994
I419
sV\u005ctt1135487
p995
I433
sV\u005ctt0112760
p996
I1557
sV\u005ctt0120891
p997
I31
sV\u005ctt0051808
p998
I1342
sV\u005ctt0114194
p999
I1433
sV\u005ctt0842926
p1000
I271
sV\u005ctt0078087
p1001
I1135
sV\u005ctt0842929
p1002
I83
sV\u005ctt0084855
p1003
I175
sV\u005ctt0086383
p1004
I183
sV\u005ctt0055100
p1005
I445
sV\u005ctt0246299
p1006
I1057
sV\u005ctt0443632
p1007
I712
sV\u005ctt0069947
p1008
I303
sV\u005ctt1321860
p1009
I787
sV\u005ctt0206201
p1010
I334
sV\u005ctt0076150
p1011
I1360
sV\u005ctt0053318
p1012
I341
sV\u005ctt0386741
p1013
I1170
sV\u005ctt0140709
p1014
I1516
sV\u005ctt0037120
p1015
I1299
sV\u005ctt0119360
p1016
I30
sV\u005ctt0124198
p1017
I396
sV\u005ctt0089489
p1018
I603
sV\u005ctt0227445
p1019
I361
sV\u005ctt1856751
p1020
I225
sV\u005ctt0053084
p1021
I1503
sV\u005ctt1235124
p1022
I779
sV\u005ctt0112288
p1023
I1575
sV\u005ctt0076809
p1024
I1414
sV\u005ctt0029808
p1025
I1354
sV\u005ctt0115964
p1026
I37
sV\u005ctt0115963
p1027
I53
sV\u005ctt0360201
p1028
I122
sV\u005ctt0084701
p1029
I1329
sV\u005ctt0340770
p1030
I394
sV\u005ctt0059903
p1031
I1616
sV\u005ctt1606389
p1032
I688
sV\u005ctt1937396
p1033
I884
sV\u005ctt0033870
p1034
I214
sV\u005ctt0419706
p1035
I522
sV\u005ctt0239948
p1036
I542
sV\u005ctt0084522
p1037
I1390
sV\u005ctt0049743
p1038
I1594
sV\u005ctt0120857
p1039
I1550
sV\u005ctt0113243
p1040
I1272
sV\u005ctt0489664
p1041
I622
sV\u005ctt1428538
p1042
I705
sV\u005ctt0141941
p1043
I66
sV\u005ctt0643105
p1044
I1220
sV\u005ctt0046911
p1045
I1196
sV\u005ctt0077681
p1046
I413
sV\u005ctt0165798
p1047
I385
sV\u005ctt0048347
p1048
I1141
sV\u005ctt0048342
p1049
I1274
sV\u005ctt0102059
p1050
I1622
sV\u005ctt0045094
p1051
I1215
sV\u005ctt0102057
p1052
I1092
sV\u005ctt0286244
p1053
I1262
sV\u005ctt0365748
p1054
I653
sV\u005ctt0433116
p1055
I1339
sV\u005ctt1899353
p1056
I754
sV\u005ctt0077355
p1057
I991
sV\u005ctt0095444
p1058
I538
sV\u005ctt0985694
p1059
I734
sV\u005ctt0049363
p1060
I510
sV\u005ctt0067361
p1061
I535
sV\u005ctt0035446
p1062
I1527
sV\u005ctt1259014
p1063
I1063
sV\u005ctt0063518
p1064
I857
sV\u005ctt0211465
p1065
I661
sV\u005ctt0070294
p1066
I1559
sV\u005ctt0070297
p1067
I1524
sV\u005ctt0070290
p1068
I1344
sV\u005ctt0070291
p1069
I1470
sV\u005ctt0116695
p1070
I45
sV\u005ctt1233301
p1071
I901
sV\u005ctt0085809
p1072
I141
sV\u005ctt0117509
p1073
I325
sV\u005ctt0112579
p1074
I1077
sV\u005ctt0209033
p1075
I395
sV\u005ctt0382628
p1076
I142
sV\u005ctt0415306
p1077
I79
sV\u005ctt0383866
p1078
I1361
sV\u005ctt0322259
p1079
I964
sV\u005ctt0097757
p1080
I864
sV\u005ctt0311289
p1081
I1386
sV\u005ctt0038650
p1082
I208
sV\u005ctt1385867
p1083
I616
sV\u005ctt1922642
p1084
I229
sV\u005ctt0102511
p1085
I583
sV\u005ctt0059245
p1086
I1402
sV\u005ctt0382992
p1087
I1086
sV\u005ctt0770772
p1088
I468
sV\u005ctt0051744
p1089
I1428
sV\u005ctt0089908
p1090
I1326
sV\u005ctt0062803
p1091
I1530
sV\u005ctt0091187
p1092
I1111
sV\u005ctt0068646
p1093
I64
sV\u005ctt0209144
p1094
I919
sV\u005ctt0492486
p1095
I491
sV\u005ctt0052218
p1096
I1388
sV\u005ctt0104691
p1097
I465
sV\u005ctt0104692
p1098
I630
sV\u005ctt0197617
p1099
I1629
sV\u005ctt0033677
p1100
I1296
sV\u005ctt1038988
p1101
I494
sV\u005ctt0059792
p1102
I1442
sV\u005ctt0465538
p1103
I124
sV\u005ctt0162661
p1104
I42
sV\u005ctt0266452
p1105
I660
sV\u005ctt0963794
p1106
I487
sV\u005ctt0185125
p1107
I28
sV\u005ctt0065738
p1108
I1525
sV\u005ctt0093692
p1109
I641
sV\u005ctt0111127
p1110
I1307
sV\u005ctt0457430
p1111
I74
sV\u005ctt0366996
p1112
I1366
sV\u005ctt0418773
p1113
I340
sV\u005ctt0357585
p1114
I508
sV\u005ctt0097576
p1115
I744
sV\u005ctt0053580
p1116
I722
sV\u005ctt0159365
p1117
I76
sV\u005ctt1307068
p1118
I790
sV\u005ctt0954947
p1119
I894
sV\u005ctt0142406
p1120
I1499
sV\u005ctt0108778
p1121
I777
sV\u005ctt0363276
p1122
I803
sV\u005ctt0115571
p1123
I1217
sV\u005ctt0862856
p1124
I636
sV\u005ctt1602098
p1125
I298
sV\u005ctt1161864
p1126
I902
sV\u005ctt0884328
p1127
I477
sV\u005ctt0884321
p1128
I453
sV\u005ctt0075462
p1129
I1426
sV\u005ctt0265349
p1130
I387
sV\u005ctt0078740
p1131
I1606
sV\u005ctt0072443
p1132
I1010
sV\u005ctt0493464
p1133
I479
sV\u005ctt0058536
p1134
I861
sV\u005ctt0057372
p1135
I1001
sV\u005ctt0454224
p1136
I756
sV\u005ctt1723121
p1137
I694
sV\u005ctt1098327
p1138
I834
sV\u005ctt0101775
p1139
I1331
sV\u005ctt0460792
p1140
I99
sV\u005ctt1204342
p1141
I669
sV\u005ctt0279493
p1142
I1409
sV\u005ctt0120863
p1143
I49
sV\u005ctt0284490
p1144
I386
sV\u005ctt1606392
p1145
I1445
sV\u005ctt0131980
p1146
I27
sV\u005ctt0387575
p1147
I539
sV\u005ctt0038351
p1148
I1006
sV\u005ctt0038355
p1149
I1085
sV\u005ctt0377818
p1150
I1222
sV\u005ctt0083722
p1151
I1127
sV\u005ctt0094721
p1152
I1311
sV\u005ctt0060345
p1153
I868
sV\u005ctt1057500
p1154
I755
sV\u005ctt0369339
p1155
I850
sV\u005ctt0041503
p1156
I332
sV\u005ctt0038733
p1157
I1066
sV\u005ctt0454792
p1158
I1003
sV\u005ctt0305224
p1159
I399
sV\u005ctt0800069
p1160
I609
sV\u005ctt0100827
p1161
I552
sV\u005ctt0050197
p1162
I1484
sV\u005ctt0067176
p1163
I1441
sV\u005ctt0045793
p1164
I1461
sV\u005ctt0407362
p1165
I1067
sV\u005ctt0481797
p1166
I947
sV\u005ctt1313092
p1167
I320
sV\u005ctt0040746
p1168
I253
sV\u005ctt0141842
p1169
I287
sV\u005ctt0379976
p1170
I835
sV\u005ctt1090687
p1171
I926
sV\u005ctt0173716
p1172
I1335
sV\u005ctt0067713
p1173
I1131
sV\u005ctt0045537
p1174
I1544
sV\u005ctt0355987
p1175
I621
sV\u005ctt0416236
p1176
I828
sV\u005ctt1667889
p1177
I801
sV\u005ctt0125659
p1178
I888
sV\u005ctt1549572
p1179
I1371
sV\u005ctt0113986
p1180
I463
sV\u005ctt0181316
p1181
I970
sV\u005ctt0091225
p1182
I612
sV\u005ctt0373469
p1183
I770
sV\u005ctt0090605
p1184
I302
sV\u005ctt0964539
p1185
I492
sV\u005ctt0087985
p1186
I1043
sV\u005ctt0041968
p1187
I1617
sV\u005ctt0080904
p1188
I1122
sV\u005ctt0041967
p1189
I1591
sV\u005ctt0166896
p1190
I1282
sV\u005ctt0229440
p1191
I741
sV\u005ctt0040366
p1192
I1254
sV\u005ctt0343135
p1193
I121
sV\u005ctt0780622
p1194
I743
sV\u005ctt0036377
p1195
I1178
sV\u005ctt0120802
p1196
I55
sV\u005ctt0071200
p1197
I1620
sV\u005ctt0078405
p1198
I540
sV\u005ctt0425112
p1199
I293
sV\u005ctt0417741
p1200
I281
sV\u005ctt0067959
p1201
I1017
sV\u005ctt0098439
p1202
I587
sV\u005ctt0048028
p1203
I1008
sV\u005ctt0118954
p1204
I160
sV\u005ctt1840332
p1205
I921
sV\u005ctt1464580
p1206
I1237
sV\u005ctt0132358
p1207
I317
sV\u005ctt0097108
p1208
I333
sV\u005ctt0278823
p1209
I1512
sV\u005ctt0168077
p1210
I1356
sV\u005ctt0887912
p1211
I135
sV\u005ctt0112818
p1212
I1423
sV\u005ctt0071396
p1213
I1500
sV\u005ctt0383010
p1214
I686
sV\u005ctt0099253
p1215
I619
sV\u005ctt0924129
p1216
I794
sV\u005ctt0082118
p1217
I505
sV\u005ctt0247586
p1218
I917
sV\u005ctt0043117
p1219
I1496
sV\u005ctt0762114
p1220
I98
sV\u005ctt0119951
p1221
I381
sV\u005ctt0988849
p1222
I557
sV\u005ctt0058329
p1223
I1002
sV\u005ctt0057187
p1224
I247
sV\u005ctt0086610
p1225
I1429
sV\u005ctt0065143
p1226
I987
sV\u005ctt1667310
p1227
I1225
sV\u005ctt0371257
p1228
I810
sV\u005ctt0364961
p1229
I1074
sV\u005ctt0115744
p1230
I1271
sV\u005ctt1318514
p1231
I786
sV\u005ctt0862467
p1232
I1119
sV\u005ctt0222812
p1233
I22
sV\u005ctt0247745
p1234
I1246
sV\u005ctt0094860
p1235
I1444
sV\u005ctt0261983
p1236
I646
sV\u005ctt0072431
p1237
I1466
sV\u005ctt0027977
p1238
I219
sV\u005ctt0120185
p1239
I844
sV\u005ctt0185937
p1240
I4
sV\u005ctt0068284
p1241
I1411
sV\u005ctt1865567
p1242
I1416
sV\u005ctt0287467
p1243
I1164
sV\u005ctt0093640
p1244
I1163
sV\u005ctt0084726
p1245
I1241
sV\u005ctt0426578
p1246
I1605
sV\u005ctt1436045
p1247
I1137
sV\u005ctt0120458
p1248
I377
sV\u005ctt0038369
p1249
I1465
sV\u005ctt0381061
p1250
I145
sV\u005ctt0462414
p1251
I977
sV\u005ctt0120695
p1252
I383
sV\u005ctt0106521
p1253
I499
sV\u005ctt0790686
p1254
I489
sV\u005ctt0046186
p1255
I1193
sV\u005ctt0432021
p1256
I644
sV\u005ctt0301199
p1257
I811
sV\u005ctt0472399
p1258
I882
sV\u005ctt0302886
p1259
I1091
sV\u005ctt0046963
p1260
I1547
sV\u005ctt0301976
p1261
I97
sV\u005ctt0804555
p1262
I537
sV\u005ctt0804505
p1263
I1533
sV\u005ctt0076590
p1264
I655
sV\u005ctt0475944
p1265
I147
sV\u005ctt0067140
p1266
I1582
sV\u005ctt0110955
p1267
I1340
sV\u005ctt0330691
p1268
I584
sV\u005ctt1204975
p1269
I1037
sV\u005ctt0390521
p1270
I971
sV\u005ctt0102034
p1271
I543
sV\u005ctt0088172
p1272
I330
sV\u005ctt0067549
p1273
I1203
sV\u005ctt0088170
p1274
I375
sV\u005ctt0101540
p1275
I163
sV\u005ctt0077405
p1276
I440
sV\u005ctt0899128
p1277
I757
sV\u005ctt0054269
p1278
I1022
sV\u005ctt0125664
p1279
I365
sV\u005ctt1243957
p1280
I449
sV\u005ctt0031725
p1281
I1541
sV\u005ctt0106308
p1282
I613
sV\u005ctt0411008
p1283
I1227
sV\u005ctt0248631
p1284
I353
sV\u005ctt0490084
p1285
I451
sV\u005ctt0031507
p1286
I1459
sV\u005ctt0283632
p1287
I1263
sV\u005ctt0077247
p1288
I1519
sV\u005ctt1226753
p1289
I822
sV\u005ctt0099088
p1290
I618
sV\u005ctt0113972
p1291
I608
sV\u005ctt0087995
p1292
I1132
sV\u005ctt0095082
p1293
I1587
sV\u005ctt0043879
p1294
I1458
sV\u005ctt0107211
p1295
I203
sV\u005ctt0067727
p1296
I998
sV\u005ctt0036348
p1297
I955
sV\u005ctt0405159
p1298
I108
sV\u005ctt0119099
p1299
I369
sV\u005ctt0298203
p1300
I1061
sV\u005ctt0192731
p1301
I974
sV\u005ctt0044672
p1302
I1152
sV\u005ctt0095889
p1303
I1417
sV\u005ctt0059260
p1304
I1611
sV\u005ctt0425123
p1305
I110
sV\u005ctt0838283
p1306
I597
sV\u005ctt0092857
p1307
I339
sV\u005ctt0023649
p1308
I732
sV\u005ctt0093105
p1309
I1065
sV\u005ctt0251736
p1310
I1029
sV\u005ctt0132342
p1311
I582
sV\u005ctt1568346
p1312
I140
sV\u005ctt0062622
p1313
I134
sV\u005ctt0049967
p1314
I1133
sV\u005ctt0456630
p1315
I1387
sV\u005ctt0063715
p1316
I1425
sV\u005ctt0465551
p1317
I872
sV\u005ctt0298845
p1318
I358
sV\u005ctt0095953
p1319
I211
sV\u005ctt0089280
p1320
I534
sV\u005ctt1172991
p1321
I805
sV\u005ctt0051658
p1322
I430
sV\u005ctt0065446
p1323
I174
sV\u005ctt0266543
p1324
I1180
sV\u005ctt0070868
p1325
I1396
sV\u005ctt0048960
p1326
I1229
sV\u005ctt0093075
p1327
I1521
sV\u005ctt0053285
p1328
I167
sV\u005ctt0375568
p1329
I889
sV\u005ctt0420087
p1330
I115
sV\u005ctt0762121
p1331
I1190
sV\u005ctt0805564
p1332
I301
sV\u005ctt0424095
p1333
I791
sV\u005ctt0021814
p1334
I737
sV\u005ctt0252299
p1335
I1058
sV\u005ctt0103956
p1336
I981
sV\u005ctt0029583
p1337
I192
sV\u005ctt0033107
p1338
I1315
sV\u005ctt0331468
p1339
I773
sV\u005ctt0068458
p1340
I762
sV\u005ctt0160668
p1341
I371
sV\u005ctt0171580
p1342
I391
sV\u005ctt0310357
p1343
I1359
sV\u005ctt1480656
p1344
I1221
sV\u005ctt0024548
p1345
I1391
sV\u005ctt0115751
p1346
I47
sV\u005ctt0128278
p1347
I1580
sV\u005ctt0047577
p1348
I1607
sV\u005ctt0405422
p1349
I85
sV\u005ctt0092675
p1350
I411
sV\u005ctt0047573
p1351
I1148
sV\u005ctt0264761
p1352
I423
sV\u005ctt1245112
p1353
I478
sV\u005ctt0120201
p1354
I1243
sV\u005ctt0120202
p1355
I1182
sV\u005ctt0021079
p1356
I177
sV\u005ctt0093493
p1357
I1156
sV\u005ctt0036342
p1358
I1168
sV\u005ctt0056575
p1359
I1295
sV\u005ctt0046359
p1360
I1179
sV\u005ctt0105435
p1361
I1070
sV\u005ctt0118617
p1362
I729
sV\u005ctt0151137
p1363
I62
sV\u005ctt0120841
p1364
I13
sV\u005ctt0120844
p1365
I392
sV\u005ctt0109446
p1366
I842
sV\u005ctt0814314
p1367
I751
sV\u005ctt1152850
p1368
I814
sV\u005ctt0335563
p1369
I520
sV\u005ctt0113568
p1370
I954
sV\u005ctt0120681
p1371
I384
sV\u005ctt0352520
p1372
I727
sV\u005ctt0219653
p1373
I659
sV\u005ctt0479537
p1374
I525
sV\u005ctt0120686
p1375
I1171
sV\u005ctt1656190
p1376
I589
sV\u005ctt1091191
p1377
I692
sV\u005ctt0064177
p1378
I1404
sV\u005ctt0034587
p1379
I1252
sV\u005ctt0080853
p1380
I1134
sV\u005ctt0080749
p1381
I590
sV\u005ctt1231580
p1382
I460
sV\u005ctt1305806
p1383
I778
sV\u005ctt0120533
p1384
I1167
sV\u005ctt0201593
p1385
I389
sV\u005ctt0081163
p1386
I985
sV\u005ctt0057426
p1387
I1126
sV\u005ctt0057427
p1388
I1399
sV\u005ctt0088763
p1389
I241
sV\u005ctt0320691
p1390
I536
sV\u005ctt0467406
p1391
I89
sV\u005ctt0048554
p1392
I1212
sV\u005ctt0124819
p1393
I529
sV\u005ctt0425430
p1394
I437
sV\u005ctt0462338
p1395
I910
sV\u005ctt0106226
p1396
I201
sV\u005ctt0245674
p1397
I574
sV\u005ctt0355295
p1398
I1033
sV\u005ctt0096945
p1399
I1338
sV\u005ctt0077745
p1400
I658
sV\u005ctt0077416
p1401
I185
sV\u005ctt0089755
p1402
I435
sV\u005ctt0059043
p1403
I996
sV\u005ctt0041386
p1404
I343
sV\u005ctt0031387
p1405
I1200
sV\u005ctt0091530
p1406
I243
sV\u005ctt0040495
p1407
I1283
sV\u005ctt0328031
p1408
I20
sV\u005ctt0816711
p1409
I284
sV\u005ctt0117665
p1410
I32
sV\u005ctt0437777
p1411
I446
sV\u005ctt0020697
p1412
I1631
sV\u005ctt0465142
p1413
I474
sV\u005ctt0181689
p1414
I133
sV\u005ctt0063385
p1415
I328
sV\u005ctt0085859
p1416
I1076
sV\u005ctt0126250
p1417
I1578
sV\u005ctt1655420
p1418
I783
sV\u005ctt1412386
p1419
I914
sV\u005ctt0082398
p1420
I683
sV\u005ctt0328107
p1421
I257
sV\u005ctt0362227
p1422
I274
sV\u005ctt0210075
p1423
I1576
sV\u005ctt0362225
p1424
I1035
sV\u005ctt0071733
p1425
I1011
sV\u005ctt0116629
p1426
I54
sV\u005ctt0119081
p1427
I604
sV\u005ctt0181064
p1428
I1372
sV\u005ctt0018737
p1429
I1025
sV\u005ctt0099385
p1430
I409
sV\u005ctt0066193
p1431
I335
sV\u005ctt0073600
p1432
I1493
sV\u005ctt0055032
p1433
I1381
sV\u005ctt0000439
p1434
I153
sV\u005ctt1032846
p1435
I102
sV\u005ctt0215750
p1436
I393
sV\u005ctt1452628
p1437
I891
sV\u005ctt0892768
p1438
I1219
sV\u005ctt0892769
p1439
I673
sV\u005ctt1291584
p1440
I892
sV\u005ctt0033627
p1441
I1259
sV\u005ctt0491747
p1442
I96
sV\u005ctt0445934
p1443
I925
sV\u005ctt0413099
p1444
I818
sV\u005ctt0055499
p1445
I1603
sV\u005ctt0029442
p1446
I1468
sV\u005ctt0165854
p1447
I931
sV\u005ctt0065761
p1448
I997
sV\u005ctt0043132
p1449
I1297
sV\u005ctt0043131
p1450
I1261
sV\u005ctt0043137
p1451
I1328
sV\u005ctt0104265
p1452
I1595
sV\u005ctt0091860
p1453
I1322
sV\u005ctt0078350
p1454
I403
sV\u005ctt0443701
p1455
I628
sV\u005ctt0079540
p1456
I544
sV\u005ctt0056217
p1457
I1072
sV\u005ctt0190590
p1458
I315
sV\u005ctt0108525
p1459
I165
sV\u005ctt0053137
p1460
I1016
sV\u005ctt0082334
p1461
I592
sV\u005ctt0086637
p1462
I236
sV\u005ctt0907657
p1463
I91
sV\u005ctt1019452
p1464
I280
sV\u005ctt0086320
p1465
I638
sV\u005ctt0454864
p1466
I879
sV\u005ctt0279778
p1467
I1158
sV\u005ctt1095174
p1468
I469
sV\u005ctt0069467
p1469
I209
sV\u005ctt0814255
p1470
I858
sV\u005ctt0114660
p1471
I1088
sV\u005ctt0029284
p1472
I1535
sV\u005ctt0892782
p1473
I865
sV\u005ctt0093822
p1474
I1502
sV\u005ctt0107843
p1475
I1621
sV\u005ctt1298650
p1476
I672
sV\u005ctt1433108
p1477
I796
sV\u005ctt0498353
p1478
I486
sV\u005ctt0094620
p1479
I514
sV\u005ctt0098382
p1480
I390
sV\u005ctt0076630
p1481
I1427
sV\u005ctt0029843
p1482
I856
sV\u005ctt0056541
p1483
I196
sV\u005ctt1462041
p1484
I553
sV\u005ctt0046435
p1485
I994
sV\u005ctt0061735
p1486
I210
sV\u005ctt0046438
p1487
I1232
sV\u005ctt0115438
p1488
I29
sV\u005ctt0038160
p1489
I1623
sV\u005ctt0454876
p1490
I278
sV\u005ctt0865559
p1491
I422
sV\u005ctt0038300
p1492
I1609
sV\u005ctt0042376
p1493
I1457
sV\u005ctt0081353
p1494
I1536
sV\u005ctt0988047
p1495
I915
sV\u005ctt0458352
p1496
I148
sV\u005ctt0280969
p1497
I80
sV\u005ctt0061391
p1498
I1469
sV\u005ctt0061395
p1499
I1054
sV\u005ctt0050839
p1500
I1095
sV\u005ctt0330181
p1501
I560
sV\u005ctt0050658
p1502
I338
sV\u005ctt0064615
p1503
I1124
sV\u005ctt0039416
p1504
I1031
sV\u005ctt0070948
p1505
I1130
sV\u005ctt0299658
p1506
I204
sV\u005ctt0058461
p1507
I155
sV\u005ctt0076731
p1508
I1267
sV\u005ctt0084412
p1509
I846
sV\u005ctt0112715
p1510
I1529
sV\u005ctt1278340
p1511
I940
sV\u005ctt0374569
p1512
I887
sV\u005ctt0081283
p1513
I71
sV\u005ctt0052602
p1514
I1474
sV\u005ctt1205537
p1515
I1247
sV\u005ctt0083972
p1516
I504
sV\u005ctt0199626
p1517
I118
sV\u005ctt0365929
p1518
I784
sV\u005ctt0077394
p1519
I366
sV\u005ctt0095159
p1520
I627
sV\u005ctt1527186
p1521
I885
sV\u005ctt0348333
p1522
I739
sV\u005ctt0098621
p1523
I166
sV\u005ctt0080319
p1524
I1478
sV\u005ctt0089560
p1525
I1600
sV\u005ctt0031742
p1526
I740
sV\u005ctt0062430
p1527
I1592
sV\u005ctt0286112
p1528
I123
sV\u005ctt1305591
p1529
I1598
sV\u005ctt0231402
p1530
I1412
sV\u005ctt0077269
p1531
I199
sV\u005ctt0043456
p1532
I556
sV\u005ctt0035884
p1533
I1455
sV\u005ctt0040444
p1534
I1454
sV\u005ctt0019254
p1535
I191
sV\u005ctt0141098
p1536
I466
sV\u005ctt1104134
p1537
I752
sV\u005ctt0212346
p1538
I1062
sV\u005ctt0024210
p1539
I1255
sV\u005ctt0091419
p1540
I1475
sV\u005ctt0073766
p1541
I1596
sV\u005ctt0041954
p1542
I1253
sV\u005ctt1623288
p1543
I1032
sV\u005ctt0041959
p1544
I198
sV\u005ctt0023249
p1545
I1202
sV\u005ctt0063462
p1546
I1104
sV\u005ctt1568921
p1547
I916
sV\u005ctt0025586
p1548
I1590
sV\u005ctt1131734
p1549
I897
sV\u005ctt0318374
p1550
I908
sV\u005ctt0122541
p1551
I65
sV\u005ctt0308383
p1552
I716
sV\u005ctt0234215
p1553
I362
sV\u005ctt1951261
p1554
I697
sV\u005ctt0107076
p1555
I623
sV\u005ctt1655442
p1556
I251
sV\u005ctt0122143
p1557
I1110
sV\u005ctt0087332
p1558
I312
sV\u005ctt0089941
p1559
I1337
sV\u005ctt0263757
p1560
I275
sV\u005ctt0871426
p1561
I874
sV\u005ctt0046085
p1562
I1482
sV\u005ctt0338216
p1563
I428
sV\u005ctt0304262
p1564
I1511
sV\u005ctt1213663
p1565
I1084
sV\u005ctt1032856
p1566
I1374
sV\u005ctt0020530
p1567
I235
sV\u005ctt0470000
p1568
I764
sV\u005ctt0101921
p1569
I94
sV\u005ctt0838232
p1570
I427
sV\u005ctt0099044
p1571
I1579
sV\u005ctt0765443
p1572
I84
sV\u005ctt1392214
p1573
I1036
sV\u005ctt0068612
p1574
I1526
sV\u005ctt0323033
p1575
I735
sV\u005ctt0318155
p1576
I975
sV\u005ctt0029682
p1577
I1460
sV\u005ctt1294213
p1578
I812
sV\u005ctt0366551
p1579
I554
sV\u005ctt1336617
p1580
I789
sV\u005ctt0285728
p1581
I663
sV\u005ctt0259711
p1582
I380
sV\u005ctt0872230
p1583
I559
sV\u005ctt1182345
p1584
I300
sV\u005ctt0185014
p1585
I408
sV\u005ctt1581310
p1586
I691
sV\u005ctt0053125
p1587
I67
sV\u005ctt0086312
p1588
I1027
sV\u005ctt0082498
p1589
I561
sV\u005ctt0375210
p1590
I606
sV\u005ctt0092654
p1591
I459
sV\u005ctt0065377
p1592
I1240
sV\u005ctt0381707
p1593
I769
sV\u005ctt0092493
p1594
I1572
sV\u005ctt0118583
p1595
I668
sV\u005ctt1414382
p1596
I800
sV\u005ctt0065088
p1597
I1304
sV\u005ctt0082031
p1598
I1421
sV\u005ctt1430132
p1599
I700
sV\u005ctt0253474
p1600
I206
sV\u005ctt0305711
p1601
I352
sV\u005ctt0102220
p1602
I1139
sV\u005ctt0094894
p1603
I1556
sV\u005ctt1939659
p1604
I693
sV\u005ctt0118636
p1605
I38
sV\u005ctt0110148
p1606
I207
sV\u005ctt1152836
p1607
I138
sV\u005ctt0105690
p1608
I677
sV\u005ctt0100404
p1609
I1059
sV\u005ctt0372824
p1610
I100
sV\u005ctt0076637
p1611
I573
sV\u005ctt0482088
p1612
I249
sV\u005ctt1483013
p1613
I676
sV\u005ctt0041498
p1614
I1280
sV\u005ctt0072081
p1615
I1334
sV\u005ctt0094761
p1616
I656
sV\u005ctt0082817
p1617
I527
sV\u005ctt0024188
p1618
I1435
sV\u005ctt0257756
p1619
I272
sV\u005ctt0064116
p1620
I189
sV\u005ctt0301727
p1621
I1268
sV\u005ctt0028096
p1622
I1105
sV\u005ctt0050539
p1623
I1464
sV\u005ctt0039420
p1624
I1350
sV\u005ctt1179904
p1625
I12
sV\u005ctt0477139
p1626
I1570
sV\u005ctt0425413
p1627
I832
sV\u005ctt0861739
p1628
I319
sV\u005ctt0353969
p1629
I1226
sV\u005ctt0422720
p1630
I143
sV\u005ctt0462590
p1631
I1545
sV\u005ctt1614989
p1632
I291
sV\u005ctt1458596
p1633
I881
sV\u005ctt0064757
p1634
I966
sV\u005ctt0033804
p1635
I1308
s.