(dp0
Vur21278766/
p1
I550
sVur0035842/
p2
I29
sVur22490656/
p3
I844
sVur3836774/
p4
I131
sVur25837689/
p5
I457
sVur4780626/
p6
I1109
sVur6141756/
p7
I1153
sVur22793030/
p8
I1009
sVur23188638/
p9
I1105
sVur1517556/
p10
I945
sVur0450109/
p11
I825
sVur0712029/
p12
I417
sVur37116501/
p13
I1115
sVur0489763/
p14
I521
sVur1043817/
p15
I647
sVur21182619/
p16
I704
sVur17509348/
p17
I766
sVur0009605/
p18
I209
sVur5035536/
p19
I296
sVur31599756/
p20
I1093
sVur1725295/
p21
I781
sVur1313418/
p22
I484
sVur22137833/
p23
I803
sVur0557788/
p24
I55
sVur0494482/
p25
I105
sVur1048771/
p26
I116
sVur1982609/
p27
I801
sVur24364152/
p28
I622
sVur6732597/
p29
I326
sVur2726231/
p30
I1198
sVur5123653/
p31
I1241
sVur19009969/
p32
I28
sVur5455211/
p33
I964
sVur3927011/
p34
I426
sVur23853088/
p35
I871
sVur5466406/
p36
I362
sVur2745984/
p37
I107
sVur0263226/
p38
I167
sVur7339516/
p39
I775
sVur0534148/
p40
I982
sVur0856095/
p41
I24
sVur0097585/
p42
I966
sVur18374320/
p43
I412
sVur18437585/
p44
I75
sVur21844984/
p45
I1256
sVur15896852/
p46
I394
sVur3270789/
p47
I596
sVur20442296/
p48
I1126
sVur15462983/
p49
I425
sVur16034092/
p50
I764
sVur2044223/
p51
I79
sVur15982856/
p52
I128
sVur1977084/
p53
I898
sVur0111731/
p54
I349
sVur21049035/
p55
I847
sVur1457119/
p56
I1017
sVur4669024/
p57
I376
sVur4130201/
p58
I743
sVur0023796/
p59
I612
sVur0079652/
p60
I696
sVur11053153/
p61
I1280
sVur0812631/
p62
I1300
sVur0102816/
p63
I33
sVur9987799/
p64
I397
sVur1052670/
p65
I555
sVur0679950/
p66
I120
sVur2082018/
p67
I1239
sVur0631986/
p68
I695
sVur0583640/
p69
I471
sVur22423593/
p70
I848
sVur0637916/
p71
I1242
sVur1619912/
p72
I813
sVur0855231/
p73
I1059
sVur0638297/
p74
I1202
sVur25364506/
p75
I1231
sVur17722856/
p76
I917
sVur2094131/
p77
I621
sVur1605950/
p78
I309
sVur2375356/
p79
I1197
sVur3657056/
p80
I451
sVur1616919/
p81
I1092
sVur0550732/
p82
I6
sVur1183308/
p83
I627
sVur4781794/
p84
I765
sVur2828692/
p85
I995
sVur3063013/
p86
I1069
sVur24018882/
p87
I1277
sVur3226761/
p88
I227
sVur1530907/
p89
I531
sVur21929149/
p90
I1159
sVur22384056/
p91
I431
sVur4823391/
p92
I936
sVur2809796/
p93
I1223
sVur25517909/
p94
I155
sVur10348034/
p95
I542
sVur1046557/
p96
I377
sVur0108786/
p97
I849
sVur6815878/
p98
I594
sVur5770688/
p99
I965
sVur0449021/
p100
I772
sVur24880647/
p101
I690
sVur27698874/
p102
I949
sVur0135826/
p103
I1154
sVur19005144/
p104
I286
sVur1195884/
p105
I679
sVur13412438/
p106
I1188
sVur9725326/
p107
I416
sVur4751428/
p108
I2
sVur1293485/
p109
I1053
sVur4990745/
p110
I1181
sVur4205035/
p111
I526
sVur1532177/
p112
I768
sVur0217478/
p113
I1
sVur2650604/
p114
I1212
sVur23135268/
p115
I1183
sVur23749086/
p116
I1262
sVur22751350/
p117
I730
sVur1835386/
p118
I197
sVur4067661/
p119
I985
sVur5424352/
p120
I456
sVur0562732/
p121
I1043
sVur1107581/
p122
I219
sVur2496397/
p123
I577
sVur2951437/
p124
I363
sVur4701442/
p125
I634
sVur20543907/
p126
I933
sVur3361091/
p127
I254
sVur4025773/
p128
I705
sVur26267201/
p129
I880
sVur0954062/
p130
I668
sVur1622466/
p131
I669
sVur4693077/
p132
I875
sVur14795108/
p133
I333
sVur2846913/
p134
I716
sVur0727639/
p135
I78
sVur2852887/
p136
I817
sVur2637155/
p137
I934
sVur0643062/
p138
I1078
sVur2692944/
p139
I140
sVur7124591/
p140
I27
sVur0090767/
p141
I48
sVur7529200/
p142
I133
sVur0749363/
p143
I955
sVur0172654/
p144
I424
sVur23843983/
p145
I961
sVur21956527/
p146
I265
sVur8735756/
p147
I661
sVur6981752/
p148
I843
sVur22999317/
p149
I352
sVur0270026/
p150
I1219
sVur1054286/
p151
I256
sVur1092294/
p152
I549
sVur12930537/
p153
I878
sVur2444068/
p154
I15
sVur1598260/
p155
I243
sVur0426613/
p156
I1042
sVur0090373/
p157
I569
sVur1506029/
p158
I403
sVur3174947/
p159
I601
sVur1803589/
p160
I199
sVur1907398/
p161
I350
sVur6739749/
p162
I815
sVur12449122/
p163
I168
sVur0547823/
p164
I1054
sVur32923824/
p165
I91
sVur4944007/
p166
I474
sVur2498078/
p167
I649
sVur9516916/
p168
I92
sVur18407045/
p169
I315
sVur0968789/
p170
I70
sVur13566917/
p171
I1271
sVur1238481/
p172
I1274
sVur14519807/
p173
I1065
sVur6550739/
p174
I516
sVur7813355/
p175
I487
sVur23359813/
p176
I931
sVur2148320/
p177
I30
sVur16517420/
p178
I1138
sVur22112651/
p179
I452
sVur23619158/
p180
I863
sVur0717142/
p181
I535
sVur1899620/
p182
I1045
sVur11215533/
p183
I23
sVur8046532/
p184
I858
sVur1885282/
p185
I171
sVur22527328/
p186
I861
sVur2567136/
p187
I786
sVur8977071/
p188
I760
sVur3446219/
p189
I331
sVur0509769/
p190
I767
sVur2314174/
p191
I750
sVur0077881/
p192
I299
sVur1690893/
p193
I987
sVur3233848/
p194
I1103
sVur0504100/
p195
I396
sVur2655139/
p196
I685
sVur13288300/
p197
I562
sVur33465207/
p198
I476
sVur17141012/
p199
I1263
sVur22996114/
p200
I372
sVur8282981/
p201
I666
sVur11427115/
p202
I1023
sVur19697454/
p203
I473
sVur5115132/
p204
I1205
sVur0226947/
p205
I1022
sVur1187307/
p206
I274
sVur0200029/
p207
I1209
sVur20018357/
p208
I524
sVur3741220/
p209
I1279
sVur2747461/
p210
I1001
sVur26266323/
p211
I291
sVur5732819/
p212
I720
sVur2368825/
p213
I111
sVur0394025/
p214
I509
sVur0812757/
p215
I378
sVur21373235/
p216
I162
sVur1132073/
p217
I850
sVur20781972/
p218
I300
sVur0305809/
p219
I306
sVur0342623/
p220
I862
sVur26574158/
p221
I86
sVur0689103/
p222
I603
sVur1458046/
p223
I139
sVur0379909/
p224
I401
sVur19176498/
p225
I912
sVur19669890/
p226
I646
sVur1588706/
p227
I574
sVur0355122/
p228
I907
sVur0102677/
p229
I338
sVur0294564/
p230
I1282
sVur4478810/
p231
I758
sVur7588529/
p232
I103
sVur1064827/
p233
I628
sVur1722042/
p234
I1151
sVur0028288/
p235
I1192
sVur0088544/
p236
I617
sVur13772764/
p237
I280
sVur0409828/
p238
I1254
sVur23415028/
p239
I580
sVur2030420/
p240
I779
sVur26127245/
p241
I353
sVur13549369/
p242
I827
sVur15291134/
p243
I930
sVur6771831/
p244
I733
sVur20117949/
p245
I591
sVur15298231/
p246
I749
sVur1150186/
p247
I752
sVur0391152/
p248
I641
sVur0730831/
p249
I963
sVur11148131/
p250
I645
sVur28159509/
p251
I240
sVur20961309/
p252
I971
sVur6199900/
p253
I76
sVur2510939/
p254
I1284
sVur32764997/
p255
I1006
sVur5876717/
p256
I57
sVur0456570/
p257
I719
sVur23748553/
p258
I123
sVur3109237/
p259
I117
sVur4491531/
p260
I143
sVur0167865/
p261
I414
sVur4445210/
p262
I1118
sVur0215200/
p263
I1121
sVur2521222/
p264
I840
sVur37667024/
p265
I824
sVur0821456/
p266
I283
sVur11864309/
p267
I290
sVur5041836/
p268
I1095
sVur13553385/
p269
I699
sVur1391405/
p270
I552
sVur0154569/
p271
I125
sVur0736738/
p272
I1266
sVur2326544/
p273
I158
sVur4385603/
p274
I279
sVur19804208/
p275
I67
sVur8167945/
p276
I1246
sVur5358902/
p277
I1194
sVur14080241/
p278
I657
sVur35717158/
p279
I1176
sVur0835751/
p280
I1013
sVur22113547/
p281
I181
sVur15869926/
p282
I620
sVur2446936/
p283
I586
sVur3177690/
p284
I1091
sVur2200871/
p285
I82
sVur41041016/
p286
I375
sVur9364638/
p287
I198
sVur0574035/
p288
I409
sVur0307374/
p289
I455
sVur0534135/
p290
I327
sVur9023821/
p291
I1199
sVur7759378/
p292
I297
sVur27774704/
p293
I115
sVur3103298/
p294
I1257
sVur5641239/
p295
I852
sVur2950235/
p296
I336
sVur0218006/
p297
I1218
sVur0671107/
p298
I195
sVur8248521/
p299
I859
sVur2722583/
p300
I829
sVur1722967/
p301
I1293
sVur11881064/
p302
I1096
sVur4569900/
p303
I494
sVur0035960/
p304
I919
sVur3847467/
p305
I988
sVur5344228/
p306
I1031
sVur15659286/
p307
I839
sVur0552632/
p308
I1074
sVur1168730/
p309
I1116
sVur20815663/
p310
I769
sVur0089164/
p311
I196
sVur2115026/
p312
I39
sVur1593687/
p313
I998
sVur0355734/
p314
I602
sVur19589623/
p315
I312
sVur12401791/
p316
I684
sVur17571044/
p317
I453
sVur2366174/
p318
I629
sVur25851619/
p319
I1230
sVur13401764/
p320
I366
sVur2307758/
p321
I1157
sVur1214854/
p322
I64
sVur0385200/
p323
I675
sVur1124558/
p324
I808
sVur22888125/
p325
I134
sVur0226855/
p326
I1163
sVur1727211/
p327
I592
sVur1196715/
p328
I942
sVur13538926/
p329
I571
sVur15836141/
p330
I244
sVur19733576/
p331
I615
sVur15855020/
p332
I736
sVur23249778/
p333
I43
sVur5153691/
p334
I294
sVur9314013/
p335
I723
sVur23483288/
p336
I407
sVur5811408/
p337
I159
sVur10251315/
p338
I216
sVur1702046/
p339
I710
sVur22881987/
p340
I1286
sVur1052098/
p341
I948
sVur0453497/
p342
I989
sVur3967726/
p343
I153
sVur22122641/
p344
I310
sVur0933275/
p345
I914
sVur0850869/
p346
I753
sVur0448368/
p347
I200
sVur8400419/
p348
I530
sVur37892465/
p349
I1025
sVur0104014/
p350
I686
sVur5151340/
p351
I161
sVur0265837/
p352
I320
sVur1634796/
p353
I359
sVur4069536/
p354
I1052
sVur1217890/
p355
I1182
sVur0654641/
p356
I582
sVur15593504/
p357
I556
sVur4308028/
p358
I1285
sVur0425304/
p359
I1245
sVur0043975/
p360
I268
sVur0738625/
p361
I890
sVur20810490/
p362
I581
sVur1744070/
p363
I1184
sVur19997672/
p364
I337
sVur0478209/
p365
I1123
sVur13977076/
p366
I72
sVur2339662/
p367
I250
sVur22301934/
p368
I888
sVur23586248/
p369
I548
sVur39727914/
p370
I1106
sVur27175177/
p371
I316
sVur2961599/
p372
I83
sVur1016453/
p373
I1186
sVur2955935/
p374
I1107
sVur0123856/
p375
I915
sVur5228267/
p376
I1101
sVur2904674/
p377
I230
sVur5513934/
p378
I590
sVur0191545/
p379
I835
sVur0097195/
p380
I1251
sVur32403589/
p381
I845
sVur0813657/
p382
I1258
sVur11848670/
p383
I924
sVur0114560/
p384
I475
sVur10824411/
p385
I807
sVur4627372/
p386
I121
sVur1592694/
p387
I343
sVur2561985/
p388
I732
sVur23115683/
p389
I637
sVur0843641/
p390
I347
sVur2889262/
p391
I1034
sVur0783721/
p392
I677
sVur1497561/
p393
I527
sVur3179158/
p394
I731
sVur4161069/
p395
I1299
sVur1355507/
p396
I450
sVur0460091/
p397
I1244
sVur0874373/
p398
I763
sVur29937976/
p399
I1178
sVur1578251/
p400
I9
sVur5390919/
p401
I994
sVur10398346/
p402
I1248
sVur1471623/
p403
I820
sVur12254828/
p404
I761
sVur20672677/
p405
I388
sVur2028132/
p406
I184
sVur3225430/
p407
I165
sVur12415200/
p408
I539
sVur2206551/
p409
I44
sVur25695543/
p410
I884
sVur31527914/
p411
I90
sVur1518804/
p412
I1030
sVur0228092/
p413
I792
sVur3032446/
p414
I87
sVur20258406/
p415
I1208
sVur3167531/
p416
I266
sVur15977902/
p417
I1220
sVur0945066/
p418
I1204
sVur2432286/
p419
I1004
sVur20621243/
p420
I285
sVur2166662/
p421
I842
sVur5177866/
p422
I1130
sVur9938570/
p423
I1051
sVur1575693/
p424
I1038
sVur2380153/
p425
I599
sVur2542703/
p426
I202
sVur15651776/
p427
I818
sVur2086380/
p428
I588
sVur1556514/
p429
I1247
sVur3223254/
p430
I213
sVur1577447/
p431
I342
sVur1116241/
p432
I575
sVur16218580/
p433
I1137
sVur0630665/
p434
I122
sVur0194347/
p435
I1307
sVur1828453/
p436
I540
sVur20725041/
p437
I1066
sVur0187170/
p438
I648
sVur0823284/
p439
I390
sVur4145136/
p440
I177
sVur16558990/
p441
I1287
sVur1406078/
p442
I328
sVur0516422/
p443
I46
sVur23818742/
p444
I1108
sVur19720242/
p445
I301
sVur8131454/
p446
I1125
sVur3111556/
p447
I77
sVur3615725/
p448
I901
sVur4506876/
p449
I1019
sVur5501912/
p450
I489
sVur1111192/
p451
I800
sVur0041958/
p452
I370
sVur19814891/
p453
I459
sVur3902771/
p454
I726
sVur9972457/
p455
I1000
sVur2148935/
p456
I365
sVur0234891/
p457
I288
sVur2882544/
p458
I741
sVur0591571/
p459
I433
sVur26312269/
p460
I514
sVur0625436/
p461
I1060
sVur2898980/
p462
I100
sVur0347711/
p463
I1164
sVur2568038/
p464
I1084
sVur4602745/
p465
I1102
sVur1545857/
p466
I130
sVur0538858/
p467
I367
sVur22641143/
p468
I572
sVur3441650/
p469
I650
sVur0495697/
p470
I1275
sVur0508954/
p471
I1225
sVur0368787/
p472
I1292
sVur0526303/
p473
I1269
sVur14207038/
p474
I307
sVur26145148/
p475
I454
sVur8766134/
p476
I264
sVur2248099/
p477
I920
sVur1596808/
p478
I543
sVur1593801/
p479
I4
sVur4405625/
p480
I68
sVur27522147/
p481
I109
sVur2206944/
p482
I346
sVur1682524/
p483
I435
sVur4101373/
p484
I837
sVur17129977/
p485
I918
sVur25845421/
p486
I289
sVur17036730/
p487
I150
sVur4127036/
p488
I706
sVur4888011/
p489
I1124
sVur3588397/
p490
I891
sVur1052099/
p491
I970
sVur1464358/
p492
I321
sVur6310197/
p493
I980
sVur8042382/
p494
I225
sVur13630333/
p495
I1213
sVur1982210/
p496
I638
sVur37834951/
p497
I293
sVur2268062/
p498
I339
sVur25362190/
p499
I1011
sVur35828939/
p500
I277
sVur10115534/
p501
I481
sVur3153189/
p502
I616
sVur0650655/
p503
I276
sVur4309318/
p504
I149
sVur18238147/
p505
I997
sVur0379447/
p506
I926
sVur0018365/
p507
I422
sVur1522352/
p508
I1119
sVur2425072/
p509
I773
sVur30653305/
p510
I810
sVur5232724/
p511
I546
sVur4593705/
p512
I857
sVur1683802/
p513
I245
sVur0568060/
p514
I172
sVur10774147/
p515
I31
sVur1448185/
p516
I953
sVur3146136/
p517
I404
sVur2262098/
p518
I1086
sVur23062922/
p519
I1026
sVur0927750/
p520
I635
sVur3824745/
p521
I1173
sVur5874410/
p522
I517
sVur4344391/
p523
I856
sVur10879013/
p524
I780
sVur1031439/
p525
I1075
sVur17699578/
p526
I943
sVur2590596/
p527
I671
sVur0508187/
p528
I1014
sVur22164449/
p529
I505
sVur0178764/
p530
I903
sVur5512905/
p531
I990
sVur8228894/
p532
I533
sVur2423278/
p533
I175
sVur0222418/
p534
I976
sVur3282620/
p535
I188
sVur0064493/
p536
I1058
sVur1430793/
p537
I101
sVur1436336/
p538
I902
sVur3798706/
p539
I26
sVur1069062/
p540
I680
sVur11059167/
p541
I190
sVur1950221/
p542
I927
sVur2790158/
p543
I97
sVur4834714/
p544
I640
sVur8239592/
p545
I129
sVur2400652/
p546
I816
sVur23961608/
p547
I20
sVur23589178/
p548
I951
sVur13496665/
p549
I557
sVur0345596/
p550
I51
sVur0239058/
p551
I691
sVur15327507/
p552
I906
sVur9619380/
p553
I788
sVur19960780/
p554
I1174
sVur0317399/
p555
I1044
sVur7462253/
p556
I737
sVur17816817/
p557
I355
sVur0290901/
p558
I322
sVur12394529/
p559
I89
sVur0663475/
p560
I1047
sVur2161307/
p561
I437
sVur2300673/
p562
I892
sVur4995240/
p563
I724
sVur0103511/
p564
I1028
sVur11934874/
p565
I203
sVur13591916/
p566
I1156
sVur7776916/
p567
I713
sVur34049683/
p568
I1132
sVur3387663/
p569
I1136
sVur14156875/
p570
I38
sVur2467618/
p571
I570
sVur2579541/
p572
I423
sVur4939636/
p573
I418
sVur8258961/
p574
I613
sVur14321363/
p575
I192
sVur19998007/
p576
I1283
sVur1077159/
p577
I950
sVur0110721/
p578
I1158
sVur1158617/
p579
I715
sVur3280905/
p580
I1071
sVur19243710/
p581
I1142
sVur21404273/
p582
I502
sVur7983304/
p583
I855
sVur1721672/
p584
I220
sVur14278480/
p585
I830
sVur5189647/
p586
I1196
sVur6918917/
p587
I1170
sVur3384819/
p588
I1067
sVur7743887/
p589
I614
sVur3473219/
p590
I114
sVur7664294/
p591
I1134
sVur6216723/
p592
I32
sVur1700743/
p593
I551
sVur32288254/
p594
I821
sVur0408624/
p595
I1144
sVur9414155/
p596
I369
sVur10348311/
p597
I672
sVur4402892/
p598
I1193
sVur1062346/
p599
I1046
sVur19892892/
p600
I872
sVur0200644/
p601
I1024
sVur0257957/
p602
I387
sVur0100620/
p603
I714
sVur13026966/
p604
I1210
sVur0892463/
p605
I665
sVur11565674/
p606
I1270
sVur2730701/
p607
I1298
sVur2634407/
p608
I231
sVur0650255/
p609
I1243
sVur7361844/
p610
I838
sVur1151824/
p611
I694
sVur10958001/
p612
I126
sVur0119489/
p613
I744
sVur39479451/
p614
I561
sVur12386544/
p615
I108
sVur0961751/
p616
I1289
sVur0362836/
p617
I341
sVur4891381/
p618
I523
sVur7639929/
p619
I791
sVur26779655/
p620
I485
sVur0604321/
p621
I707
sVur1234929/
p622
I278
sVur12026382/
p623
I1187
sVur1231696/
p624
I1297
sVur0663392/
p625
I534
sVur2039509/
p626
I776
sVur17471213/
p627
I1005
sVur6302267/
p628
I565
sVur6434408/
p629
I58
sVur35295243/
p630
I152
sVur0165374/
p631
I69
sVur0320129/
p632
I261
sVur0289847/
p633
I894
sVur7484735/
p634
I80
sVur2467778/
p635
I1063
sVur1090944/
p636
I1260
sVur3922673/
p637
I1295
sVur0680065/
p638
I16
sVur15479933/
p639
I1088
sVur8625456/
p640
I292
sVur23655320/
p641
I960
sVur0608898/
p642
I834
sVur0166205/
p643
I553
sVur2992856/
p644
I441
sVur20852250/
p645
I585
sVur1399158/
p646
I983
sVur1955998/
p647
I756
sVur1935875/
p648
I1057
sVur0011762/
p649
I124
sVur1640094/
p650
I806
sVur0372846/
p651
I249
sVur0543054/
p652
I593
sVur0283340/
p653
I314
sVur6664971/
p654
I137
sVur20682974/
p655
I992
sVur35067858/
p656
I718
sVur14923871/
p657
I81
sVur25573440/
p658
I747
sVur4997726/
p659
I344
sVur0746147/
p660
I579
sVur32939276/
p661
I860
sVur0812534/
p662
I607
sVur23129480/
p663
I522
sVur24133940/
p664
I643
sVur2624144/
p665
I796
sVur2526572/
p666
I41
sVur0070535/
p667
I923
sVur1790888/
p668
I519
sVur0910859/
p669
I935
sVur0375636/
p670
I560
sVur0189629/
p671
I183
sVur0003136/
p672
I1032
sVur2186751/
p673
I415
sVur0292400/
p674
I207
sVur8564485/
p675
I410
sVur22668817/
p676
I99
sVur0385918/
p677
I532
sVur11342546/
p678
I482
sVur19835265/
p679
I908
sVur0159565/
p680
I738
sVur0386241/
p681
I1306
sVur1095226/
p682
I1149
sVur4314460/
p683
I595
sVur7596749/
p684
I17
sVur2547554/
p685
I1020
sVur3608743/
p686
I1036
sVur0212564/
p687
I853
sVur5580339/
p688
I504
sVur22008076/
p689
I678
sVur23537468/
p690
I682
sVur10354876/
p691
I958
sVur23842491/
p692
I1278
sVur1953247/
p693
I1185
sVur0239428/
p694
I313
sVur3034700/
p695
I937
sVur20597997/
p696
I63
sVur4017833/
p697
I1206
sVur0989035/
p698
I478
sVur26976606/
p699
I520
sVur0909646/
p700
I1112
sVur2093818/
p701
I384
sVur6208088/
p702
I1296
sVur2214855/
p703
I1190
sVur1408989/
p704
I1304
sVur22131361/
p705
I674
sVur0179443/
p706
I461
sVur6222226/
p707
I689
sVur0622275/
p708
I1308
sVur2630196/
p709
I1265
sVur0447031/
p710
I287
sVur17134433/
p711
I358
sVur0568065/
p712
I305
sVur3435249/
p713
I609
sVur19511193/
p714
I382
sVur7059410/
p715
I275
sVur5440386/
p716
I419
sVur1679475/
p717
I234
sVur0590820/
p718
I662
sVur26341798/
p719
I639
sVur8898115/
p720
I146
sVur1148847/
p721
I186
sVur4879080/
p722
I687
sVur5625948/
p723
I826
sVur1657894/
p724
I408
sVur0313019/
p725
I304
sVur17119745/
p726
I1056
sVur21819041/
p727
I1224
sVur18257075/
p728
I499
sVur3313572/
p729
I1177
sVur1219578/
p730
I610
sVur23399133/
p731
I537
sVur20552756/
p732
I210
sVur12093192/
p733
I440
sVur22410620/
p734
I135
sVur20916867/
p735
I1261
sVur2079400/
p736
I1145
sVur1307882/
p737
I477
sVur25497641/
p738
I1037
sVur24340247/
p739
I178
sVur0178741/
p740
I922
sVur1019294/
p741
I900
sVur9062918/
p742
I538
sVur11358081/
p743
I467
sVur2449095/
p744
I65
sVur1758388/
p745
I260
sVur0391482/
p746
I658
sVur36357573/
p747
I241
sVur0408793/
p748
I221
sVur2245715/
p749
I379
sVur33374263/
p750
I462
sVur0365713/
p751
I13
sVur0857426/
p752
I439
sVur20439405/
p753
I206
sVur23944958/
p754
I112
sVur3728510/
p755
I1029
sVur1510825/
p756
I373
sVur0678462/
p757
I323
sVur0389827/
p758
I957
sVur5488899/
p759
I468
sVur1147015/
p760
I1155
sVur18037810/
p761
I246
sVur12680645/
p762
I1049
sVur2154134/
p763
I757
sVur0331999/
p764
I1147
sVur1162550/
p765
I18
sVur8900628/
p766
I248
sVur35048995/
p767
I50
sVur19368298/
p768
I411
sVur4119148/
p769
I722
sVur1142410/
p770
I262
sVur18271419/
p771
I967
sVur13849221/
p772
I1099
sVur1263651/
p773
I1055
sVur4932862/
p774
I319
sVur18951864/
p775
I1007
sVur0819382/
p776
I709
sVur24048464/
p777
I281
sVur2862544/
p778
I325
sVur7969168/
p779
I8
sVur1179335/
p780
I952
sVur1683855/
p781
I465
sVur10384462/
p782
I445
sVur5291991/
p783
I53
sVur1601212/
p784
I874
sVur22881716/
p785
I438
sVur9557126/
p786
I1235
sVur0164227/
p787
I443
sVur8048890/
p788
I1259
sVur4611798/
p789
I1120
sVur4234119/
p790
I5
sVur13934875/
p791
I578
sVur13125317/
p792
I490
sVur20531137/
p793
I10
sVur4998619/
p794
I380
sVur1577474/
p795
I173
sVur12938224/
p796
I1161
sVur22654354/
p797
I740
sVur1113856/
p798
I633
sVur0182733/
p799
I589
sVur1173088/
p800
I889
sVur4034943/
p801
I194
sVur17129003/
p802
I623
sVur10756301/
p803
I1117
sVur8708196/
p804
I911
sVur3212364/
p805
I497
sVur3947986/
p806
I568
sVur0453228/
p807
I500
sVur8334868/
p808
I904
sVur0002746/
p809
I113
sVur1365222/
p810
I1114
sVur12844960/
p811
I833
sVur1941835/
p812
I735
sVur14295241/
p813
I1201
sVur38011481/
p814
I698
sVur19956219/
p815
I683
sVur2507933/
p816
I921
sVur1416505/
p817
I655
sVur22564429/
p818
I204
sVur0204528/
p819
I727
sVur0977355/
p820
I1027
sVur3313332/
p821
I1302
sVur10477303/
p822
I794
sVur1761695/
p823
I1238
sVur3741901/
p824
I1081
sVur27881178/
p825
I110
sVur34967775/
p826
I1080
sVur9187930/
p827
I493
sVur2812098/
p828
I169
sVur7472847/
p829
I318
sVur11376179/
p830
I605
sVur1831049/
p831
I587
sVur14440242/
p832
I1050
sVur3035115/
p833
I518
sVur0007613/
p834
I317
sVur22956348/
p835
I846
sVur13648280/
p836
I651
sVur6499406/
p837
I1305
sVur3987336/
p838
I1267
sVur3161232/
p839
I1003
sVur5971012/
p840
I398
sVur11750202/
p841
I624
sVur2188681/
p842
I1166
sVur17825945/
p843
I208
sVur8503729/
p844
I515
sVur3092368/
p845
I700
sVur20481545/
p846
I432
sVur4948347/
p847
I851
sVur6321000/
p848
I1122
sVur2116666/
p849
I222
sVur25627714/
p850
I232
sVur0786032/
p851
I597
sVur0593719/
p852
I1214
sVur1249454/
p853
I96
sVur3793011/
p854
I223
sVur1697212/
p855
I608
sVur2206985/
p856
I496
sVur24878632/
p857
I725
sVur0915482/
p858
I144
sVur15795433/
p859
I180
sVur0010198/
p860
I1085
sVur0445179/
p861
I1082
sVur28221379/
p862
I991
sVur1843955/
p863
I12
sVur10247256/
p864
I583
sVur0508402/
p865
I84
sVur3071695/
p866
I163
sVur5152832/
p867
I1111
sVur0270238/
p868
I406
sVur17646017/
p869
I1127
sVur15303216/
p870
I239
sVur1148823/
p871
I187
sVur24733533/
p872
I1288
sVur6663090/
p873
I513
sVur0431565/
p874
I332
sVur0542841/
p875
I156
sVur37517476/
p876
I237
sVur25228602/
p877
I1203
sVur6643268/
p878
I334
sVur20998742/
p879
I729
sVur1098460/
p880
I956
sVur1328109/
p881
I391
sVur12230254/
p882
I34
sVur2483625/
p883
I215
sVur12527639/
p884
I626
sVur1966301/
p885
I882
sVur0128216/
p886
I236
sVur5842274/
p887
I541
sVur6136793/
p888
I996
sVur26550510/
p889
I1068
sVur0832863/
p890
I802
sVur0339877/
p891
I771
sVur1350313/
p892
I259
sVur4532636/
p893
I1162
sVur1303993/
p894
I809
sVur29798050/
p895
I400
sVur11489906/
p896
I364
sVur2484999/
p897
I447
sVur18220218/
p898
I303
sVur27361979/
p899
I1110
sVur0111563/
p900
I832
sVur7704831/
p901
I174
sVur2405286/
p902
I789
sVur10840477/
p903
I688
sVur0181421/
p904
I446
sVur0756238/
p905
I702
sVur0225436/
p906
I1273
sVur9480570/
p907
I253
sVur4061961/
p908
I251
sVur0139258/
p909
I1015
sVur0219603/
p910
I782
sVur21821220/
p911
I1172
sVur0652700/
p912
I267
sVur4610576/
p913
I1089
sVur1544320/
p914
I1087
sVur0438066/
p915
I819
sVur0349252/
p916
I185
sVur0805697/
p917
I558
sVur2609601/
p918
I1215
sVur0035229/
p919
I179
sVur1077822/
p920
I45
sVur0438881/
p921
I402
sVur0310235/
p922
I1128
sVur11942291/
p923
I693
sVur5115203/
p924
I19
sVur0075285/
p925
I74
sVur0486368/
p926
I405
sVur0581842/
p927
I798
sVur1732001/
p928
I506
sVur10986404/
p929
I11
sVur7850750/
p930
I1100
sVur0166317/
p931
I448
sVur17822437/
p932
I166
sVur19783225/
p933
I1189
sVur0591310/
p934
I335
sVur15857362/
p935
I118
sVur24266511/
p936
I681
sVur20315296/
p937
I999
sVur0597616/
p938
I804
sVur6447592/
p939
I399
sVur19227097/
p940
I1171
sVur0664492/
p941
I1233
sVur20243955/
p942
I1148
sVur0806494/
p943
I298
sVur20118939/
p944
I56
sVur2293681/
p945
I226
sVur1696608/
p946
I795
sVur2020269/
p947
I947
sVur1980092/
p948
I893
sVur7602045/
p949
I1207
sVur22484170/
p950
I864
sVur1075696/
p951
I1179
sVur0382572/
p952
I854
sVur3923318/
p953
I389
sVur0774754/
p954
I7
sVur7051754/
p955
I978
sVur2721657/
p956
I492
sVur0385776/
p957
I939
sVur2020154/
p958
I828
sVur0412563/
p959
I229
sVur0453068/
p960
I959
sVur0331648/
p961
I1146
sVur7650400/
p962
I157
sVur0383429/
p963
I386
sVur18200502/
p964
I974
sVur0677266/
p965
I271
sVur8998988/
p966
I790
sVur0305537/
p967
I1276
sVur0292957/
p968
I151
sVur19281585/
p969
I357
sVur1364019/
p970
I272
sVur34414709/
p971
I642
sVur1594266/
p972
I712
sVur26076545/
p973
I717
sVur4474660/
p974
I54
sVur9485839/
p975
I430
sVur1233583/
p976
I751
sVur3603551/
p977
I35
sVur0785249/
p978
I973
sVur3032357/
p979
I495
sVur0312444/
p980
I887
sVur6121712/
p981
I127
sVur0935583/
p982
I841
sVur11987301/
p983
I36
sVur3277334/
p984
I576
sVur2171244/
p985
I653
sVur10334028/
p986
I1175
sVur0697468/
p987
I480
sVur0276228/
p988
I1077
sVur2707735/
p989
I242
sVur3478561/
p990
I1250
sVur0786506/
p991
I1090
sVur0157498/
p992
I528
sVur10631863/
p993
I823
sVur19479740/
p994
I132
sVur2488512/
p995
I774
sVur11423174/
p996
I1076
sVur18181424/
p997
I536
sVur0892646/
p998
I1070
sVur1501216/
p999
I981
sVur4986911/
p1000
I25
sVur1908551/
p1001
I460
sVur5146276/
p1002
I308
sVur6535601/
p1003
I630
sVur1590118/
p1004
I85
sVur8206701/
p1005
I968
sVur10414989/
p1006
I1094
sVur0137908/
p1007
I631
sVur23055365/
p1008
I1098
sVur4145056/
p1009
I360
sVur20437399/
p1010
I1008
sVur0140921/
p1011
I1240
sVur2466369/
p1012
I1012
sVur3670492/
p1013
I748
sVur4670962/
p1014
I962
sVur10123981/
p1015
I211
sVur0278527/
p1016
I463
sVur4259560/
p1017
I1141
sVur0635312/
p1018
I899
sVur2292515/
p1019
I1253
sVur1917678/
p1020
I351
sVur23426612/
p1021
I611
sVur0482513/
p1022
I644
sVur22864666/
p1023
I191
sVur23112615/
p1024
I421
sVur0400233/
p1025
I525
sVur0020866/
p1026
I721
sVur1579047/
p1027
I754
sVur3580907/
p1028
I1062
sVur12287348/
p1029
I1309
sVur2747265/
p1030
I1040
sVur13178622/
p1031
I673
sVur1435717/
p1032
I142
sVur1390493/
p1033
I896
sVur1081118/
p1034
I1249
sVur1586969/
p1035
I604
sVur2798372/
p1036
I746
sVur1419266/
p1037
I660
sVur3341647/
p1038
I877
sVur1819548/
p1039
I954
sVur0057377/
p1040
I1229
sVur7752337/
p1041
I979
sVur12009777/
p1042
I95
sVur12219256/
p1043
I940
sVur0033913/
p1044
I1018
sVur1061889/
p1045
I563
sVur4732215/
p1046
I778
sVur0956793/
p1047
I785
sVur9227049/
p1048
I511
sVur2042633/
p1049
I1061
sVur6078355/
p1050
I993
sVur9388473/
p1051
I910
sVur0442119/
p1052
I273
sVur2420383/
p1053
I270
sVur2095936/
p1054
I770
sVur1085214/
p1055
I1002
sVur0902607/
p1056
I420
sVur2183600/
p1057
I799
sVur3379318/
p1058
I545
sVur3465461/
p1059
I869
sVur37581915/
p1060
I1303
sVur1019268/
p1061
I464
sVur27443865/
p1062
I652
sVur16399785/
p1063
I106
sVur2866837/
p1064
I413
sVur23566468/
p1065
I1226
sVur8929656/
p1066
I867
sVur0288429/
p1067
I1104
sVur0234740/
p1068
I94
sVur6207631/
p1069
I148
sVur9014548/
p1070
I1150
sVur0384847/
p1071
I566
sVur0068788/
p1072
I1021
sVur1609501/
p1073
I49
sVur5232598/
p1074
I895
sVur37763453/
p1075
I340
sVur2415124/
p1076
I258
sVur7197984/
p1077
I1152
sVur13887584/
p1078
I395
sVur2573484/
p1079
I654
sVur0073800/
p1080
I865
sVur24012560/
p1081
I348
sVur2754433/
p1082
I104
sVur0820162/
p1083
I93
sVur0592531/
p1084
I263
sVur2885836/
p1085
I670
sVur1062771/
p1086
I385
sVur17067687/
p1087
I1073
sVur16162453/
p1088
I1290
sVur0281853/
p1089
I1165
sVur0171876/
p1090
I37
sVur5037232/
p1091
I1048
sVur17651340/
p1092
I147
sVur1560940/
p1093
I59
sVur19707400/
p1094
I14
sVur27550947/
p1095
I22
sVur0082768/
p1096
I66
sVur5156288/
p1097
I1016
sVur4729038/
p1098
I1168
sVur2904081/
p1099
I1135
sVur2821700/
p1100
I692
sVur5348015/
p1101
I977
sVur13653016/
p1102
I1216
sVur19151711/
p1103
I247
sVur0752880/
p1104
I392
sVur1532079/
p1105
I201
sVur0380267/
p1106
I329
sVur10962105/
p1107
I160
sVur17335592/
p1108
I1268
sVur0491610/
p1109
I88
sVur15148249/
p1110
I1264
sVur2905297/
p1111
I598
sVur0643200/
p1112
I762
sVur17592197/
p1113
I42
sVur10002238/
p1114
I876
sVur0609951/
p1115
I176
sVur1493052/
p1116
I564
sVur14236266/
p1117
I836
sVur1878251/
p1118
I822
sVur0306861/
p1119
I1160
sVur0937743/
p1120
I811
sVur8345459/
p1121
I873
sVur0459522/
p1122
I62
sVur0091670/
p1123
I1033
sVur23887409/
p1124
I913
sVur11335477/
p1125
I1228
sVur36494160/
p1126
I759
sVur20692319/
p1127
I503
sVur4248714/
p1128
I371
sVur6730332/
p1129
I797
sVur8406248/
p1130
I361
sVur13371508/
p1131
I1140
sVur2193169/
p1132
I814
sVur20871749/
p1133
I488
sVur0583160/
p1134
I667
sVur4294858/
p1135
I483
sVur0208117/
p1136
I870
sVur27559289/
p1137
I711
sVur11358734/
p1138
I1097
sVur2706684/
p1139
I1237
sVur0856530/
p1140
I427
sVur0556157/
p1141
I1079
sVur2295338/
p1142
I170
sVur0186091/
p1143
I21
sVur0463200/
p1144
I905
sVur0656262/
p1145
I73
sVur22869412/
p1146
I1133
sVur0011596/
p1147
I946
sVur0357354/
p1148
I1139
sVur5237888/
p1149
I663
sVur16161013/
p1150
I1272
sVur12327230/
p1151
I805
sVur4155019/
p1152
I1083
sVur4788588/
p1153
I697
sVur10340026/
p1154
I40
sVur4111911/
p1155
I1294
sVur0116181/
p1156
I3
sVur0865972/
p1157
I217
sVur7973716/
p1158
I573
sVur0395586/
p1159
I1211
sVur0176092/
p1160
I1221
sVur19534250/
p1161
I929
sVur2457681/
p1162
I345
sVur2567338/
p1163
I944
sVur1777116/
p1164
I381
sVur13149501/
p1165
I498
sVur1193248/
p1166
I787
sVur20744367/
p1167
I986
sVur2969972/
p1168
I886
sVur13074316/
p1169
I1291
sVur1628323/
p1170
I547
sVur2955724/
p1171
I885
sVur10742541/
p1172
I1281
sVur0264325/
p1173
I866
sVur2286500/
p1174
I676
sVur2757172/
p1175
I255
sVur0270791/
p1176
I1167
sVur11201219/
p1177
I600
sVur4598948/
p1178
I584
sVur5077160/
p1179
I728
sVur13223958/
p1180
I701
sVur0033241/
p1181
I393
sVur4597795/
p1182
I928
sVur10252234/
p1183
I742
sVur14146094/
p1184
I368
sVur0270745/
p1185
I224
sVur18718871/
p1186
I501
sVur3112639/
p1187
I938
sVur2898520/
p1188
I71
sVur16832848/
p1189
I47
sVur12837856/
p1190
I831
sVur1741394/
p1191
I228
sVur14029890/
p1192
I984
sVur21885947/
p1193
I214
sVur9927546/
p1194
I466
sVur2608802/
p1195
I932
sVur11228318/
p1196
I1039
sVur2216443/
p1197
I302
sVur0925405/
p1198
I374
sVur1117555/
p1199
I812
sVur2976262/
p1200
I1255
sVur1940900/
p1201
I897
sVur0106443/
p1202
I235
sVur20904438/
p1203
I269
sVur5426623/
p1204
I559
sVur2366009/
p1205
I284
sVur3924830/
p1206
I1232
sVur4195782/
p1207
I383
sVur23293799/
p1208
I1222
sVur2879151/
p1209
I972
sVur37268498/
p1210
I1191
sVur0618783/
p1211
I529
sVur2642613/
p1212
I755
sVur23392189/
p1213
I434
sVur1073902/
p1214
I470
sVur37659127/
p1215
I1035
sVur0975530/
p1216
I1227
sVur11693161/
p1217
I909
sVur0492558/
p1218
I975
sVur0769600/
p1219
I469
sVur1994077/
p1220
I625
sVur24899688/
p1221
I491
sVur13981839/
p1222
I182
sVur4980432/
p1223
I472
sVur0610628/
p1224
I879
sVur20748638/
p1225
I941
sVur0121300/
p1226
I783
sVur3871920/
p1227
I664
sVur22171966/
p1228
I458
sVur2890802/
p1229
I356
sVur0969109/
p1230
I1217
sVur22424524/
p1231
I1234
sVur0361658/
p1232
I554
sVur21241039/
p1233
I777
sVur3328034/
p1234
I510
sVur3057109/
p1235
I636
sVur0394470/
p1236
I1129
sVur19532258/
p1237
I1041
sVur11597946/
p1238
I1301
sVur23018536/
p1239
I507
sVur0778794/
p1240
I883
sVur14062232/
p1241
I238
sVur19935607/
p1242
I656
sVur4465624/
p1243
I1010
sVur1332263/
p1244
I205
sVur10734326/
p1245
I436
sVur0059982/
p1246
I428
sVur29565770/
p1247
I136
sVur28164074/
p1248
I969
sVur1046460/
p1249
I138
sVur19648580/
p1250
I164
sVur2812446/
p1251
I141
sVur11264932/
p1252
I925
sVur30171044/
p1253
I659
sVur9521536/
p1254
I102
sVur2480402/
p1255
I0
sVur2403537/
p1256
I193
sVur0972645/
p1257
I330
sVur26443691/
p1258
I295
sVur0185160/
p1259
I444
sVur3079504/
p1260
I708
sVur25952910/
p1261
I606
sVur0892648/
p1262
I1113
sVur2362867/
p1263
I793
sVur0143909/
p1264
I1252
sVur26465371/
p1265
I189
sVur2632576/
p1266
I145
sVur0493442/
p1267
I354
sVur0309032/
p1268
I1169
sVur2573153/
p1269
I1236
sVur0822741/
p1270
I212
sVur2418932/
p1271
I703
sVur1745168/
p1272
I1064
sVur0679729/
p1273
I618
sVur30522091/
p1274
I868
sVur23334796/
p1275
I282
sVur2377279/
p1276
I429
sVur2843647/
p1277
I739
sVur5042138/
p1278
I60
sVur0224914/
p1279
I218
sVur18876660/
p1280
I1072
sVur0812029/
p1281
I784
sVur2348067/
p1282
I119
sVur15148330/
p1283
I52
sVur13035875/
p1284
I61
sVur2626332/
p1285
I508
sVur0329384/
p1286
I544
sVur6134663/
p1287
I745
sVur4217184/
p1288
I442
sVur0741152/
p1289
I1143
sVur1773414/
p1290
I233
sVur15711750/
p1291
I311
sVur9150302/
p1292
I512
sVur21232893/
p1293
I324
sVur0926576/
p1294
I632
sVur0090091/
p1295
I734
sVur3211385/
p1296
I619
sVur0136588/
p1297
I154
sVur0541468/
p1298
I252
sVur2034330/
p1299
I98
sVur0464186/
p1300
I1200
sVur3109921/
p1301
I1131
sVur6458242/
p1302
I486
sVur1096300/
p1303
I567
sVur7383416/
p1304
I1195
sVur14678985/
p1305
I1180
sVur2419668/
p1306
I916
sVur0556711/
p1307
I479
sVur2369518/
p1308
I257
sVur0720105/
p1309
I881
sVur2024359/
p1310
I449
s.